ccopy_reg
_reconstructor
p0
(cmadgraph.core.base_objects
Model
p1
c__builtin__
dict
p2
(dp3
S'ref_dict_to0'
p4
(dp5
sS'interactions'
p6
g0
(cmadgraph.core.base_objects
InteractionList
p7
c__builtin__
list
p8
(lp9
g0
(cmadgraph.core.base_objects
Interaction
p10
g2
(dp11
S'particles'
p12
g0
(cmadgraph.core.base_objects
ParticleList
p13
g8
(lp14
g0
(cmadgraph.core.base_objects
Particle
p15
g2
(dp16
S'texname'
p17
S'\\phi'
p18
sS'propagating'
p19
I01
sS'name'
p20
S'h'
p21
sS'self_antipart'
p22
I01
sS'color'
p23
I1
sS'width'
p24
S'WH'
p25
sS'charge'
p26
F0.0
sS'mass'
p27
S'MH'
p28
sS'antiname'
p29
S'h'
p30
sS'LeptonNumber'
p31
I0
sS'line'
p32
S'dashed'
p33
sS'is_part'
p34
I01
sS'spin'
p35
I1
sS'antitexname'
p36
g18
sS'pdg_code'
p37
I25
stp38
Rp39
ag39
ag39
atp40
Rp41
sS'lorentz'
p42
(lp43
S'SSS1'
p44
asg23
(lp45
g0
(cmadgraph.core.color_algebra
ColorString
p46
g8
(lp47
tp48
Rp49
(dp50
S'coeff'
p51
cfractions
Fraction
p52
(S'1'
p53
tp54
Rp55
sS'is_imaginary'
p56
I00
sS'Nc_power'
p57
I0
sbasS'id'
p58
I1
sS'orders'
p59
(dp60
S'QED'
p61
I1
ssS'couplings'
p62
(dp63
(I0
I0
tp64
S'GC_21'
p65
sstp66
Rp67
ag0
(g10
g2
(dp68
g12
g0
(g13
g8
(lp69
g0
(g15
g2
(dp70
g17
S'G'
p71
sg19
I01
sg20
S'g'
p72
sg22
I01
sg23
I8
sg24
S'ZERO'
p73
sg26
F0.0
sg27
g73
sg29
S'g'
p74
sg31
I0
sg32
S'curly'
p75
sg34
I01
sg35
I3
sg36
g71
sg37
I21
stp76
Rp77
ag77
ag77
atp78
Rp79
sg42
(lp80
S'VVV1'
p81
asg23
(lp82
g0
(g46
g8
(lp83
cmadgraph.core.color_algebra
f
p84
(I0
I1
I2
tp85
Rp86
atp87
Rp88
(dp89
g51
g52
(g53
tp90
Rp91
sg56
I00
sg57
I0
sbasg58
I2
sg59
(dp92
S'QCD'
p93
I1
ssg62
(dp94
(I0
I0
tp95
S'GC_4'
p96
sstp97
Rp98
ag0
(g10
g2
(dp99
g12
g0
(g13
g8
(lp100
g77
ag77
ag77
ag77
atp101
Rp102
sg42
(lp103
S'VVVV1'
p104
aS'VVVV3'
p105
aS'VVVV4'
p106
asg23
(lp107
g0
(g46
g8
(lp108
g84
(I1
I2
I-1
tp109
Rp110
ag84
(I-1
I0
I3
tp111
Rp112
atp113
Rp114
(dp115
g51
g52
(g53
tp116
Rp117
sg56
I00
sg57
I0
sbag0
(g46
g8
(lp118
g84
(I1
I3
I-1
tp119
Rp120
ag84
(I-1
I0
I2
tp121
Rp122
atp123
Rp124
(dp125
g51
g52
(g53
tp126
Rp127
sg56
I00
sg57
I0
sbag0
(g46
g8
(lp128
g84
(I2
I3
I-1
tp129
Rp130
ag84
(I-1
I0
I1
tp131
Rp132
atp133
Rp134
(dp135
g51
g52
(g53
tp136
Rp137
sg56
I00
sg57
I0
sbasg58
I3
sg59
(dp138
g93
I2
ssg62
(dp139
(I2
I0
tp140
S'GC_6'
p141
s(I1
I1
tp142
g141
s(I0
I2
tp143
g141
sstp144
Rp145
ag0
(g10
g2
(dp146
g12
g0
(g13
g8
(lp147
g0
(g15
g2
(dp148
g17
S'A'
p149
sg19
I01
sg20
S'a'
p150
sg22
I01
sg23
I1
sg24
g73
sg26
F0.0
sg27
g73
sg29
S'a'
p151
sg31
I0
sg32
S'wavy'
p152
sg34
I01
sg35
I3
sg36
g149
sg37
I22
stp153
Rp154
ag0
(g15
g2
(dp155
g17
S'W+'
p156
sg34
I00
sg20
S'w+'
p157
sg22
I00
sg23
I1
sg24
S'WW'
p158
sg26
F1.0
sg27
S'MW'
p159
sg31
I0
sg29
S'w-'
p160
sg32
g152
sg19
I01
sg35
I3
sg36
g156
sg37
I24
stp161
Rp162
ag0
(g15
g2
(dp163
g17
g156
sg19
I01
sg20
g157
sg22
I00
sg23
I1
sg24
g158
sg26
F1.0
sg27
g159
sg29
g160
sg31
I0
sg32
g152
sg34
I01
sg35
I3
sg36
g156
sg37
I24
stp164
Rp165
atp166
Rp167
sg42
(lp168
g81
asg23
(lp169
g0
(g46
g8
(lp170
tp171
Rp172
(dp173
g51
g52
(g53
tp174
Rp175
sg56
I00
sg57
I0
sbasg58
I4
sg59
(dp176
g61
I1
ssg62
(dp177
(I0
I0
tp178
S'GC_16'
p179
sstp180
Rp181
ag0
(g10
g2
(dp182
g12
g0
(g13
g8
(lp183
g162
ag165
ag39
ag39
atp184
Rp185
sg42
(lp186
S'VVSS1'
p187
asg23
(lp188
g0
(g46
g8
(lp189
tp190
Rp191
(dp192
g51
g52
(g53
tp193
Rp194
sg56
I00
sg57
I0
sbasg58
I5
sg59
(dp195
g61
I2
ssg62
(dp196
(I0
I0
tp197
S'GC_10'
p198
sstp199
Rp200
ag0
(g10
g2
(dp201
g12
g0
(g13
g8
(lp202
g162
ag165
ag39
atp203
Rp204
sg42
(lp205
S'VVS1'
p206
asg23
(lp207
g0
(g46
g8
(lp208
tp209
Rp210
(dp211
g51
g52
(g53
tp212
Rp213
sg56
I00
sg57
I0
sbasg58
I6
sg59
(dp214
g61
I1
ssg62
(dp215
(I0
I0
tp216
S'GC_22'
p217
sstp218
Rp219
ag0
(g10
g2
(dp220
g12
g0
(g13
g8
(lp221
g154
ag154
ag162
ag165
atp222
Rp223
sg42
(lp224
S'VVVV2'
p225
asg23
(lp226
g0
(g46
g8
(lp227
tp228
Rp229
(dp230
g51
g52
(g53
tp231
Rp232
sg56
I00
sg57
I0
sbasg58
I7
sg59
(dp233
g61
I2
ssg62
(dp234
(I0
I0
tp235
S'GC_18'
p236
sstp237
Rp238
ag0
(g10
g2
(dp239
g12
g0
(g13
g8
(lp240
g162
ag165
ag0
(g15
g2
(dp241
g17
S'Z'
p242
sg19
I01
sg20
S'z'
p243
sg22
I01
sg23
I1
sg24
S'WZ'
p244
sg26
F0.0
sg27
S'MZ'
p245
sg29
S'z'
p246
sg31
I0
sg32
g152
sg34
I01
sg35
I3
sg36
g242
sg37
I23
stp247
Rp248
atp249
Rp250
sg42
(lp251
g81
asg23
(lp252
g0
(g46
g8
(lp253
tp254
Rp255
(dp256
g51
g52
(g53
tp257
Rp258
sg56
I00
sg57
I0
sbasg58
I8
sg59
(dp259
g61
I1
ssg62
(dp260
(I0
I0
tp261
S'GC_7'
p262
sstp263
Rp264
ag0
(g10
g2
(dp265
g12
g0
(g13
g8
(lp266
g162
ag162
ag165
ag165
atp267
Rp268
sg42
(lp269
g225
asg23
(lp270
g0
(g46
g8
(lp271
tp272
Rp273
(dp274
g51
g52
(g53
tp275
Rp276
sg56
I00
sg57
I0
sbasg58
I9
sg59
(dp277
g61
I2
ssg62
(dp278
(I0
I0
tp279
S'GC_8'
p280
sstp281
Rp282
ag0
(g10
g2
(dp283
g12
g0
(g13
g8
(lp284
g154
ag162
ag165
ag248
atp285
Rp286
sg42
(lp287
S'VVVV5'
p288
asg23
(lp289
g0
(g46
g8
(lp290
tp291
Rp292
(dp293
g51
g52
(g53
tp294
Rp295
sg56
I00
sg57
I0
sbasg58
I10
sg59
(dp296
g61
I2
ssg62
(dp297
(I0
I0
tp298
S'GC_17'
p299
sstp300
Rp301
ag0
(g10
g2
(dp302
g12
g0
(g13
g8
(lp303
g248
ag248
ag39
ag39
atp304
Rp305
sg42
(lp306
g187
asg23
(lp307
g0
(g46
g8
(lp308
tp309
Rp310
(dp311
g51
g52
(g53
tp312
Rp313
sg56
I00
sg57
I0
sbasg58
I11
sg59
(dp314
g61
I2
ssg62
(dp315
(I0
I0
tp316
S'GC_20'
p317
sstp318
Rp319
ag0
(g10
g2
(dp320
g12
g0
(g13
g8
(lp321
g248
ag248
ag39
atp322
Rp323
sg42
(lp324
g206
asg23
(lp325
g0
(g46
g8
(lp326
tp327
Rp328
(dp329
g51
g52
(g53
tp330
Rp331
sg56
I00
sg57
I0
sbasg58
I12
sg59
(dp332
g61
I1
ssg62
(dp333
(I0
I0
tp334
S'GC_23'
p335
sstp336
Rp337
ag0
(g10
g2
(dp338
g12
g0
(g13
g8
(lp339
g162
ag165
ag248
ag248
atp340
Rp341
sg42
(lp342
g225
asg23
(lp343
g0
(g46
g8
(lp344
tp345
Rp346
(dp347
g51
g52
(g53
tp348
Rp349
sg56
I00
sg57
I0
sbasg58
I13
sg59
(dp350
g61
I2
ssg62
(dp351
(I0
I0
tp352
S'GC_9'
p353
sstp354
Rp355
ag0
(g10
g2
(dp356
g12
g0
(g13
g8
(lp357
g0
(g15
g2
(dp358
g17
S'd'
p359
sg34
I00
sg20
S'd'
p360
sg22
I00
sg23
I3
sg24
g73
sg26
F-0.33333333333333331
sg27
g73
sg31
I0
sg29
S'd~'
p361
sg32
S'straight'
p362
sg19
I01
sg35
I2
sg36
g359
sg37
I1
stp363
Rp364
ag0
(g15
g2
(dp365
g17
g359
sg19
I01
sg20
g360
sg22
I00
sg23
I3
sg24
g73
sg26
F-0.33333333333333331
sg27
g73
sg29
g361
sg31
I0
sg32
g362
sg34
I01
sg35
I2
sg36
g359
sg37
I1
stp366
Rp367
ag154
atp368
Rp369
sg42
(lp370
S'FFV1'
p371
asg23
(lp372
g0
(g46
g8
(lp373
cmadgraph.core.color_algebra
T
p374
(I1
I0
tp375
Rp376
atp377
Rp378
(dp379
g51
g52
(g53
tp380
Rp381
sg56
I00
sg57
I0
sbasg58
I14
sg59
(dp382
g61
I1
ssg62
(dp383
(I0
I0
tp384
S'GC_1'
p385
sstp386
Rp387
ag0
(g10
g2
(dp388
g12
g0
(g13
g8
(lp389
g0
(g15
g2
(dp390
g17
S's'
p391
sg34
I00
sg20
S's'
p392
sg22
I00
sg23
I3
sg24
g73
sg26
F-0.33333333333333331
sg27
g73
sg31
I0
sg29
S's~'
p393
sg32
g362
sg19
I01
sg35
I2
sg36
g391
sg37
I3
stp394
Rp395
ag0
(g15
g2
(dp396
g17
g391
sg19
I01
sg20
g392
sg22
I00
sg23
I3
sg24
g73
sg26
F-0.33333333333333331
sg27
g73
sg29
g393
sg31
I0
sg32
g362
sg34
I01
sg35
I2
sg36
g391
sg37
I3
stp397
Rp398
ag154
atp399
Rp400
sg42
(lp401
g371
asg23
(lp402
g0
(g46
g8
(lp403
g374
(I1
I0
tp404
Rp405
atp406
Rp407
(dp408
g51
g52
(g53
tp409
Rp410
sg56
I00
sg57
I0
sbasg58
I15
sg59
g382
sg62
(dp411
(I0
I0
tp412
g385
sstp413
Rp414
ag0
(g10
g2
(dp415
g12
g0
(g13
g8
(lp416
g0
(g15
g2
(dp417
g17
S'b'
p418
sg34
I00
sg20
S'b'
p419
sg22
I00
sg23
I3
sg24
g73
sg26
F-0.33333333333333331
sg27
S'MB'
p420
sg31
I0
sg29
S'b~'
p421
sg32
g362
sg19
I01
sg35
I2
sg36
g418
sg37
I5
stp422
Rp423
ag0
(g15
g2
(dp424
g17
g418
sg19
I01
sg20
g419
sg22
I00
sg23
I3
sg24
g73
sg26
F-0.33333333333333331
sg27
g420
sg29
g421
sg31
I0
sg32
g362
sg34
I01
sg35
I2
sg36
g418
sg37
I5
stp425
Rp426
ag154
atp427
Rp428
sg42
(lp429
g371
asg23
(lp430
g0
(g46
g8
(lp431
g374
(I1
I0
tp432
Rp433
atp434
Rp435
(dp436
g51
g52
(g53
tp437
Rp438
sg56
I00
sg57
I0
sbasg58
I16
sg59
g382
sg62
(dp439
(I0
I0
tp440
g385
sstp441
Rp442
ag0
(g10
g2
(dp443
g12
g0
(g13
g8
(lp444
g0
(g15
g2
(dp445
g17
S'e-'
p446
sg34
I00
sg20
S'e-'
p447
sg22
I00
sg23
I1
sg24
g73
sg26
F-1.0
sg27
g73
sg31
I1
sg29
S'e+'
p448
sg32
g362
sg19
I01
sg35
I2
sg36
g446
sg37
I11
stp449
Rp450
ag0
(g15
g2
(dp451
g17
g446
sg19
I01
sg20
g447
sg22
I00
sg23
I1
sg24
g73
sg26
F-1.0
sg27
g73
sg29
g448
sg31
I1
sg32
g362
sg34
I01
sg35
I2
sg36
g446
sg37
I11
stp452
Rp453
ag154
atp454
Rp455
sg42
(lp456
g371
asg23
(lp457
g0
(g46
g8
(lp458
tp459
Rp460
(dp461
g51
g52
(g53
tp462
Rp463
sg56
I00
sg57
I0
sbasg58
I17
sg59
(dp464
g61
I1
ssg62
(dp465
(I0
I0
tp466
S'GC_3'
p467
sstp468
Rp469
ag0
(g10
g2
(dp470
g12
g0
(g13
g8
(lp471
g0
(g15
g2
(dp472
g17
S'm-'
p473
sg34
I00
sg20
S'm-'
p474
sg22
I00
sg23
I1
sg24
g73
sg26
F-1.0
sg27
g73
sg31
I1
sg29
S'm+'
p475
sg32
g362
sg19
I01
sg35
I2
sg36
g473
sg37
I13
stp476
Rp477
ag0
(g15
g2
(dp478
g17
g473
sg19
I01
sg20
g474
sg22
I00
sg23
I1
sg24
g73
sg26
F-1.0
sg27
g73
sg29
g475
sg31
I1
sg32
g362
sg34
I01
sg35
I2
sg36
g473
sg37
I13
stp479
Rp480
ag154
atp481
Rp482
sg42
(lp483
g371
asg23
(lp484
g0
(g46
g8
(lp485
tp486
Rp487
(dp488
g51
g52
(g53
tp489
Rp490
sg56
I00
sg57
I0
sbasg58
I18
sg59
g464
sg62
(dp491
(I0
I0
tp492
g467
sstp493
Rp494
ag0
(g10
g2
(dp495
g12
g0
(g13
g8
(lp496
g0
(g15
g2
(dp497
g17
S'tt-'
p498
sg34
I00
sg20
S'tt-'
p499
sg22
I00
sg23
I1
sg24
g73
sg26
F-1.0
sg27
S'MTA'
p500
sg31
I1
sg29
S'tt+'
p501
sg32
g362
sg19
I01
sg35
I2
sg36
g498
sg37
I15
stp502
Rp503
ag0
(g15
g2
(dp504
g17
g498
sg19
I01
sg20
g499
sg22
I00
sg23
I1
sg24
g73
sg26
F-1.0
sg27
g500
sg29
g501
sg31
I1
sg32
g362
sg34
I01
sg35
I2
sg36
g498
sg37
I15
stp505
Rp506
ag154
atp507
Rp508
sg42
(lp509
g371
asg23
(lp510
g0
(g46
g8
(lp511
tp512
Rp513
(dp514
g51
g52
(g53
tp515
Rp516
sg56
I00
sg57
I0
sbasg58
I19
sg59
g464
sg62
(dp517
(I0
I0
tp518
g467
sstp519
Rp520
ag0
(g10
g2
(dp521
g12
g0
(g13
g8
(lp522
g0
(g15
g2
(dp523
g17
S'u'
p524
sg34
I00
sg20
S'u'
p525
sg22
I00
sg23
I3
sg24
g73
sg26
F0.66666666666666663
sg27
g73
sg31
I0
sg29
S'u~'
p526
sg32
g362
sg19
I01
sg35
I2
sg36
g524
sg37
I2
stp527
Rp528
ag0
(g15
g2
(dp529
g17
g524
sg19
I01
sg20
g525
sg22
I00
sg23
I3
sg24
g73
sg26
F0.66666666666666663
sg27
g73
sg29
g526
sg31
I0
sg32
g362
sg34
I01
sg35
I2
sg36
g524
sg37
I2
stp530
Rp531
ag154
atp532
Rp533
sg42
(lp534
g371
asg23
(lp535
g0
(g46
g8
(lp536
g374
(I1
I0
tp537
Rp538
atp539
Rp540
(dp541
g51
g52
(g53
tp542
Rp543
sg56
I00
sg57
I0
sbasg58
I20
sg59
(dp544
g61
I1
ssg62
(dp545
(I0
I0
tp546
S'GC_2'
p547
sstp548
Rp549
ag0
(g10
g2
(dp550
g12
g0
(g13
g8
(lp551
g0
(g15
g2
(dp552
g17
S'c'
p553
sg34
I00
sg20
S'c'
p554
sg22
I00
sg23
I3
sg24
g73
sg26
F0.66666666666666663
sg27
g73
sg31
I0
sg29
S'c~'
p555
sg32
g362
sg19
I01
sg35
I2
sg36
g553
sg37
I4
stp556
Rp557
ag0
(g15
g2
(dp558
g17
g553
sg19
I01
sg20
g554
sg22
I00
sg23
I3
sg24
g73
sg26
F0.66666666666666663
sg27
g73
sg29
g555
sg31
I0
sg32
g362
sg34
I01
sg35
I2
sg36
g553
sg37
I4
stp559
Rp560
ag154
atp561
Rp562
sg42
(lp563
g371
asg23
(lp564
g0
(g46
g8
(lp565
g374
(I1
I0
tp566
Rp567
atp568
Rp569
(dp570
g51
g52
(g53
tp571
Rp572
sg56
I00
sg57
I0
sbasg58
I21
sg59
g544
sg62
(dp573
(I0
I0
tp574
g547
sstp575
Rp576
ag0
(g10
g2
(dp577
g12
g0
(g13
g8
(lp578
g0
(g15
g2
(dp579
g17
S't'
p580
sg34
I00
sg20
S't'
p581
sg22
I00
sg23
I3
sg24
S'WT'
p582
sg26
F0.66666666666666663
sg27
S'MT'
p583
sg31
I0
sg29
S't~'
p584
sg32
g362
sg19
I01
sg35
I2
sg36
g580
sg37
I6
stp585
Rp586
ag0
(g15
g2
(dp587
g17
g580
sg19
I01
sg20
g581
sg22
I00
sg23
I3
sg24
g582
sg26
F0.66666666666666663
sg27
g583
sg29
g584
sg31
I0
sg32
g362
sg34
I01
sg35
I2
sg36
g580
sg37
I6
stp588
Rp589
ag154
atp590
Rp591
sg42
(lp592
g371
asg23
(lp593
g0
(g46
g8
(lp594
g374
(I1
I0
tp595
Rp596
atp597
Rp598
(dp599
g51
g52
(g53
tp600
Rp601
sg56
I00
sg57
I0
sbasg58
I22
sg59
g544
sg62
(dp602
(I0
I0
tp603
g547
sstp604
Rp605
ag0
(g10
g2
(dp606
g12
g0
(g13
g8
(lp607
g364
ag367
ag77
atp608
Rp609
sg42
(lp610
g371
asg23
(lp611
g0
(g46
g8
(lp612
g374
(I2
I1
I0
tp613
Rp614
atp615
Rp616
(dp617
g51
g52
(g53
tp618
Rp619
sg56
I00
sg57
I0
sbasg58
I23
sg59
(dp620
g93
I1
ssg62
(dp621
(I0
I0
tp622
S'GC_5'
p623
sstp624
Rp625
ag0
(g10
g2
(dp626
g12
g0
(g13
g8
(lp627
g395
ag398
ag77
atp628
Rp629
sg42
(lp630
g371
asg23
(lp631
g0
(g46
g8
(lp632
g374
(I2
I1
I0
tp633
Rp634
atp635
Rp636
(dp637
g51
g52
(g53
tp638
Rp639
sg56
I00
sg57
I0
sbasg58
I24
sg59
g620
sg62
(dp640
(I0
I0
tp641
g623
sstp642
Rp643
ag0
(g10
g2
(dp644
g12
g0
(g13
g8
(lp645
g423
ag426
ag77
atp646
Rp647
sg42
(lp648
g371
asg23
(lp649
g0
(g46
g8
(lp650
g374
(I2
I1
I0
tp651
Rp652
atp653
Rp654
(dp655
g51
g52
(g53
tp656
Rp657
sg56
I00
sg57
I0
sbasg58
I25
sg59
g620
sg62
(dp658
(I0
I0
tp659
g623
sstp660
Rp661
ag0
(g10
g2
(dp662
g12
g0
(g13
g8
(lp663
g423
ag426
ag39
atp664
Rp665
sg42
(lp666
S'FFS1'
p667
asg23
(lp668
g0
(g46
g8
(lp669
g374
(I1
I0
tp670
Rp671
atp672
Rp673
(dp674
g51
g52
(g53
tp675
Rp676
sg56
I00
sg57
I0
sbasg58
I26
sg59
(dp677
g61
I1
ssg62
(dp678
(I0
I0
tp679
S'GC_24'
p680
sstp681
Rp682
ag0
(g10
g2
(dp683
g12
g0
(g13
g8
(lp684
g364
ag367
ag248
atp685
Rp686
sg42
(lp687
S'FFV2'
p688
aS'FFV3'
p689
asg23
(lp690
g0
(g46
g8
(lp691
g374
(I1
I0
tp692
Rp693
atp694
Rp695
(dp696
g51
g52
(g53
tp697
Rp698
sg56
I00
sg57
I0
sbasg58
I27
sg59
(dp699
g61
I1
ssg62
(dp700
(I0
I1
tp701
S'GC_14'
p702
s(I0
I0
tp703
S'GC_12'
p704
sstp705
Rp706
ag0
(g10
g2
(dp707
g12
g0
(g13
g8
(lp708
g395
ag398
ag248
atp709
Rp710
sg42
(lp711
g688
ag689
asg23
(lp712
g0
(g46
g8
(lp713
g374
(I1
I0
tp714
Rp715
atp716
Rp717
(dp718
g51
g52
(g53
tp719
Rp720
sg56
I00
sg57
I0
sbasg58
I28
sg59
g699
sg62
(dp721
(I0
I1
tp722
g702
s(I0
I0
tp723
g704
sstp724
Rp725
ag0
(g10
g2
(dp726
g12
g0
(g13
g8
(lp727
g423
ag426
ag248
atp728
Rp729
sg42
(lp730
g688
ag689
asg23
(lp731
g0
(g46
g8
(lp732
g374
(I1
I0
tp733
Rp734
atp735
Rp736
(dp737
g51
g52
(g53
tp738
Rp739
sg56
I00
sg57
I0
sbasg58
I29
sg59
g699
sg62
(dp740
(I0
I1
tp741
g702
s(I0
I0
tp742
g704
sstp743
Rp744
ag0
(g10
g2
(dp745
g12
g0
(g13
g8
(lp746
g364
ag531
ag162
atp747
Rp748
sg42
(lp749
g688
asg23
(lp750
g0
(g46
g8
(lp751
g374
(I1
I0
tp752
Rp753
atp754
Rp755
(dp756
g51
g52
(g53
tp757
Rp758
sg56
I00
sg57
I0
sbasg58
I30
sg59
(dp759
g61
I1
ssg62
(dp760
(I0
I0
tp761
S'GC_11'
p762
sstp763
Rp764
ag0
(g10
g2
(dp765
g12
g0
(g13
g8
(lp766
g395
ag560
ag162
atp767
Rp768
sg42
(lp769
g688
asg23
(lp770
g0
(g46
g8
(lp771
g374
(I1
I0
tp772
Rp773
atp774
Rp775
(dp776
g51
g52
(g53
tp777
Rp778
sg56
I00
sg57
I0
sbasg58
I31
sg59
g759
sg62
(dp779
(I0
I0
tp780
g762
sstp781
Rp782
ag0
(g10
g2
(dp783
g12
g0
(g13
g8
(lp784
g423
ag589
ag162
atp785
Rp786
sg42
(lp787
g688
asg23
(lp788
g0
(g46
g8
(lp789
g374
(I1
I0
tp790
Rp791
atp792
Rp793
(dp794
g51
g52
(g53
tp795
Rp796
sg56
I00
sg57
I0
sbasg58
I32
sg59
g759
sg62
(dp797
(I0
I0
tp798
g762
sstp799
Rp800
ag0
(g10
g2
(dp801
g12
g0
(g13
g8
(lp802
g528
ag367
ag165
atp803
Rp804
sg42
(lp805
g688
asg23
(lp806
g0
(g46
g8
(lp807
g374
(I1
I0
tp808
Rp809
atp810
Rp811
(dp812
g51
g52
(g53
tp813
Rp814
sg56
I00
sg57
I0
sbasg58
I33
sg59
g759
sg62
(dp815
(I0
I0
tp816
g762
sstp817
Rp818
ag0
(g10
g2
(dp819
g12
g0
(g13
g8
(lp820
g557
ag398
ag165
atp821
Rp822
sg42
(lp823
g688
asg23
(lp824
g0
(g46
g8
(lp825
g374
(I1
I0
tp826
Rp827
atp828
Rp829
(dp830
g51
g52
(g53
tp831
Rp832
sg56
I00
sg57
I0
sbasg58
I34
sg59
g759
sg62
(dp833
(I0
I0
tp834
g762
sstp835
Rp836
ag0
(g10
g2
(dp837
g12
g0
(g13
g8
(lp838
g586
ag426
ag165
atp839
Rp840
sg42
(lp841
g688
asg23
(lp842
g0
(g46
g8
(lp843
g374
(I1
I0
tp844
Rp845
atp846
Rp847
(dp848
g51
g52
(g53
tp849
Rp850
sg56
I00
sg57
I0
sbasg58
I35
sg59
g759
sg62
(dp851
(I0
I0
tp852
g762
sstp853
Rp854
ag0
(g10
g2
(dp855
g12
g0
(g13
g8
(lp856
g528
ag531
ag77
atp857
Rp858
sg42
(lp859
g371
asg23
(lp860
g0
(g46
g8
(lp861
g374
(I2
I1
I0
tp862
Rp863
atp864
Rp865
(dp866
g51
g52
(g53
tp867
Rp868
sg56
I00
sg57
I0
sbasg58
I36
sg59
g620
sg62
(dp869
(I0
I0
tp870
g623
sstp871
Rp872
ag0
(g10
g2
(dp873
g12
g0
(g13
g8
(lp874
g557
ag560
ag77
atp875
Rp876
sg42
(lp877
g371
asg23
(lp878
g0
(g46
g8
(lp879
g374
(I2
I1
I0
tp880
Rp881
atp882
Rp883
(dp884
g51
g52
(g53
tp885
Rp886
sg56
I00
sg57
I0
sbasg58
I37
sg59
g620
sg62
(dp887
(I0
I0
tp888
g623
sstp889
Rp890
ag0
(g10
g2
(dp891
g12
g0
(g13
g8
(lp892
g586
ag589
ag77
atp893
Rp894
sg42
(lp895
g371
asg23
(lp896
g0
(g46
g8
(lp897
g374
(I2
I1
I0
tp898
Rp899
atp900
Rp901
(dp902
g51
g52
(g53
tp903
Rp904
sg56
I00
sg57
I0
sbasg58
I38
sg59
g620
sg62
(dp905
(I0
I0
tp906
g623
sstp907
Rp908
ag0
(g10
g2
(dp909
g12
g0
(g13
g8
(lp910
g503
ag506
ag39
atp911
Rp912
sg42
(lp913
g667
asg23
(lp914
g0
(g46
g8
(lp915
tp916
Rp917
(dp918
g51
g52
(g53
tp919
Rp920
sg56
I00
sg57
I0
sbasg58
I39
sg59
(dp921
g61
I1
ssg62
(dp922
(I0
I0
tp923
S'GC_26'
p924
sstp925
Rp926
ag0
(g10
g2
(dp927
g12
g0
(g13
g8
(lp928
g586
ag589
ag39
atp929
Rp930
sg42
(lp931
g667
asg23
(lp932
g0
(g46
g8
(lp933
g374
(I1
I0
tp934
Rp935
atp936
Rp937
(dp938
g51
g52
(g53
tp939
Rp940
sg56
I00
sg57
I0
sbasg58
I40
sg59
(dp941
g61
I1
ssg62
(dp942
(I0
I0
tp943
S'GC_25'
p944
sstp945
Rp946
ag0
(g10
g2
(dp947
g12
g0
(g13
g8
(lp948
g450
ag453
ag248
atp949
Rp950
sg42
(lp951
g688
aS'FFV4'
p952
asg23
(lp953
g0
(g46
g8
(lp954
tp955
Rp956
(dp957
g51
g52
(g53
tp958
Rp959
sg56
I00
sg57
I0
sbasg58
I41
sg59
(dp960
g61
I1
ssg62
(dp961
(I0
I1
tp962
S'GC_15'
p963
s(I0
I0
tp964
g704
sstp965
Rp966
ag0
(g10
g2
(dp967
g12
g0
(g13
g8
(lp968
g477
ag480
ag248
atp969
Rp970
sg42
(lp971
g688
ag952
asg23
(lp972
g0
(g46
g8
(lp973
tp974
Rp975
(dp976
g51
g52
(g53
tp977
Rp978
sg56
I00
sg57
I0
sbasg58
I42
sg59
g960
sg62
(dp979
(I0
I1
tp980
g963
s(I0
I0
tp981
g704
sstp982
Rp983
ag0
(g10
g2
(dp984
g12
g0
(g13
g8
(lp985
g503
ag506
ag248
atp986
Rp987
sg42
(lp988
g688
ag952
asg23
(lp989
g0
(g46
g8
(lp990
tp991
Rp992
(dp993
g51
g52
(g53
tp994
Rp995
sg56
I00
sg57
I0
sbasg58
I43
sg59
g960
sg62
(dp996
(I0
I1
tp997
g963
s(I0
I0
tp998
g704
sstp999
Rp1000
ag0
(g10
g2
(dp1001
g12
g0
(g13
g8
(lp1002
g450
ag0
(g15
g2
(dp1003
g17
S've'
p1004
sg19
I01
sg20
S've'
p1005
sg22
I00
sg23
I1
sg24
g73
sg26
F0.0
sg27
g73
sg29
S've~'
p1006
sg31
I1
sg32
g362
sg34
I01
sg35
I2
sg36
g1004
sg37
I12
stp1007
Rp1008
ag162
atp1009
Rp1010
sg42
(lp1011
g688
asg23
(lp1012
g0
(g46
g8
(lp1013
tp1014
Rp1015
(dp1016
g51
g52
(g53
tp1017
Rp1018
sg56
I00
sg57
I0
sbasg58
I44
sg59
g759
sg62
(dp1019
(I0
I0
tp1020
g762
sstp1021
Rp1022
ag0
(g10
g2
(dp1023
g12
g0
(g13
g8
(lp1024
g477
ag0
(g15
g2
(dp1025
g17
S'vm'
p1026
sg19
I01
sg20
S'vm'
p1027
sg22
I00
sg23
I1
sg24
g73
sg26
F0.0
sg27
g73
sg29
S'vm~'
p1028
sg31
I1
sg32
g362
sg34
I01
sg35
I2
sg36
g1026
sg37
I14
stp1029
Rp1030
ag162
atp1031
Rp1032
sg42
(lp1033
g688
asg23
(lp1034
g0
(g46
g8
(lp1035
tp1036
Rp1037
(dp1038
g51
g52
(g53
tp1039
Rp1040
sg56
I00
sg57
I0
sbasg58
I45
sg59
g759
sg62
(dp1041
(I0
I0
tp1042
g762
sstp1043
Rp1044
ag0
(g10
g2
(dp1045
g12
g0
(g13
g8
(lp1046
g503
ag0
(g15
g2
(dp1047
g17
S'vt'
p1048
sg19
I01
sg20
S'vt'
p1049
sg22
I00
sg23
I1
sg24
g73
sg26
F0.0
sg27
g73
sg29
S'vt~'
p1050
sg31
I1
sg32
g362
sg34
I01
sg35
I2
sg36
g1048
sg37
I16
stp1051
Rp1052
ag162
atp1053
Rp1054
sg42
(lp1055
g688
asg23
(lp1056
g0
(g46
g8
(lp1057
tp1058
Rp1059
(dp1060
g51
g52
(g53
tp1061
Rp1062
sg56
I00
sg57
I0
sbasg58
I46
sg59
g759
sg62
(dp1063
(I0
I0
tp1064
g762
sstp1065
Rp1066
ag0
(g10
g2
(dp1067
g12
g0
(g13
g8
(lp1068
g0
(g15
g2
(dp1069
g17
g1004
sg34
I00
sg20
g1005
sg22
I00
sg23
I1
sg24
g73
sg26
F0.0
sg27
g73
sg31
I1
sg29
g1006
sg32
g362
sg19
I01
sg35
I2
sg36
g1004
sg37
I12
stp1070
Rp1071
ag453
ag165
atp1072
Rp1073
sg42
(lp1074
g688
asg23
(lp1075
g0
(g46
g8
(lp1076
tp1077
Rp1078
(dp1079
g51
g52
(g53
tp1080
Rp1081
sg56
I00
sg57
I0
sbasg58
I47
sg59
g759
sg62
(dp1082
(I0
I0
tp1083
g762
sstp1084
Rp1085
ag0
(g10
g2
(dp1086
g12
g0
(g13
g8
(lp1087
g0
(g15
g2
(dp1088
g17
g1026
sg34
I00
sg20
g1027
sg22
I00
sg23
I1
sg24
g73
sg26
F0.0
sg27
g73
sg31
I1
sg29
g1028
sg32
g362
sg19
I01
sg35
I2
sg36
g1026
sg37
I14
stp1089
Rp1090
ag480
ag165
atp1091
Rp1092
sg42
(lp1093
g688
asg23
(lp1094
g0
(g46
g8
(lp1095
tp1096
Rp1097
(dp1098
g51
g52
(g53
tp1099
Rp1100
sg56
I00
sg57
I0
sbasg58
I48
sg59
g759
sg62
(dp1101
(I0
I0
tp1102
g762
sstp1103
Rp1104
ag0
(g10
g2
(dp1105
g12
g0
(g13
g8
(lp1106
g0
(g15
g2
(dp1107
g17
g1048
sg34
I00
sg20
g1049
sg22
I00
sg23
I1
sg24
g73
sg26
F0.0
sg27
g73
sg31
I1
sg29
g1050
sg32
g362
sg19
I01
sg35
I2
sg36
g1048
sg37
I16
stp1108
Rp1109
ag506
ag165
atp1110
Rp1111
sg42
(lp1112
g688
asg23
(lp1113
g0
(g46
g8
(lp1114
tp1115
Rp1116
(dp1117
g51
g52
(g53
tp1118
Rp1119
sg56
I00
sg57
I0
sbasg58
I49
sg59
g759
sg62
(dp1120
(I0
I0
tp1121
g762
sstp1122
Rp1123
ag0
(g10
g2
(dp1124
g12
g0
(g13
g8
(lp1125
g528
ag531
ag248
atp1126
Rp1127
sg42
(lp1128
g688
aS'FFV5'
p1129
asg23
(lp1130
g0
(g46
g8
(lp1131
g374
(I1
I0
tp1132
Rp1133
atp1134
Rp1135
(dp1136
g51
g52
(g53
tp1137
Rp1138
sg56
I00
sg57
I0
sbasg58
I50
sg59
g699
sg62
(dp1139
(I0
I1
tp1140
g702
s(I0
I0
tp1141
S'GC_13'
p1142
sstp1143
Rp1144
ag0
(g10
g2
(dp1145
g12
g0
(g13
g8
(lp1146
g557
ag560
ag248
atp1147
Rp1148
sg42
(lp1149
g688
ag1129
asg23
(lp1150
g0
(g46
g8
(lp1151
g374
(I1
I0
tp1152
Rp1153
atp1154
Rp1155
(dp1156
g51
g52
(g53
tp1157
Rp1158
sg56
I00
sg57
I0
sbasg58
I51
sg59
g699
sg62
(dp1159
(I0
I1
tp1160
g702
s(I0
I0
tp1161
g1142
sstp1162
Rp1163
ag0
(g10
g2
(dp1164
g12
g0
(g13
g8
(lp1165
g586
ag589
ag248
atp1166
Rp1167
sg42
(lp1168
g688
ag1129
asg23
(lp1169
g0
(g46
g8
(lp1170
g374
(I1
I0
tp1171
Rp1172
atp1173
Rp1174
(dp1175
g51
g52
(g53
tp1176
Rp1177
sg56
I00
sg57
I0
sbasg58
I52
sg59
g699
sg62
(dp1178
(I0
I1
tp1179
g702
s(I0
I0
tp1180
g1142
sstp1181
Rp1182
ag0
(g10
g2
(dp1183
g12
g0
(g13
g8
(lp1184
g1071
ag1008
ag248
atp1185
Rp1186
sg42
(lp1187
g688
asg23
(lp1188
g0
(g46
g8
(lp1189
tp1190
Rp1191
(dp1192
g51
g52
(g53
tp1193
Rp1194
sg56
I00
sg57
I0
sbasg58
I53
sg59
(dp1195
g61
I1
ssg62
(dp1196
(I0
I0
tp1197
S'GC_19'
p1198
sstp1199
Rp1200
ag0
(g10
g2
(dp1201
g12
g0
(g13
g8
(lp1202
g1090
ag1030
ag248
atp1203
Rp1204
sg42
(lp1205
g688
asg23
(lp1206
g0
(g46
g8
(lp1207
tp1208
Rp1209
(dp1210
g51
g52
(g53
tp1211
Rp1212
sg56
I00
sg57
I0
sbasg58
I54
sg59
g1195
sg62
(dp1213
(I0
I0
tp1214
g1198
sstp1215
Rp1216
ag0
(g10
g2
(dp1217
g12
g0
(g13
g8
(lp1218
g1109
ag1052
ag248
atp1219
Rp1220
sg42
(lp1221
g688
asg23
(lp1222
g0
(g46
g8
(lp1223
tp1224
Rp1225
(dp1226
g51
g52
(g53
tp1227
Rp1228
sg56
I00
sg57
I0
sbasg58
I55
sg59
g1195
sg62
(dp1229
(I0
I0
tp1230
g1198
sstp1231
Rp1232
ag0
(g10
g2
(dp1233
g12
g0
(g13
g8
(lp1234
g0
(g15
g2
(dp1235
g17
S'g21'
p1236
sg19
I01
sg20
S'g21'
p1237
sg22
I01
sg23
I1
sg24
g73
sg26
F0.0
sg27
g73
sg29
S'g21'
p1238
sg31
I0
sg32
g75
sg34
I01
sg35
I3
sg36
g1236
sg37
I9021
stp1239
Rp1240
ag0
(g15
g2
(dp1241
g17
S'g32'
p1242
sg19
I01
sg20
S'g32'
p1243
sg22
I01
sg23
I1
sg24
g73
sg26
F0.0
sg27
g73
sg29
S'g32'
p1244
sg31
I0
sg32
g75
sg34
I01
sg35
I3
sg36
g1242
sg37
I9032
stp1245
Rp1246
ag0
(g15
g2
(dp1247
g17
S'g13'
p1248
sg19
I01
sg20
S'g13'
p1249
sg22
I01
sg23
I1
sg24
g73
sg26
F0.0
sg27
g73
sg29
S'g13'
p1250
sg31
I0
sg32
g75
sg34
I01
sg35
I3
sg36
g1248
sg37
I9013
stp1251
Rp1252
atp1253
Rp1254
sg42
(lp1255
g81
asg23
(lp1256
g0
(g46
g8
(lp1257
tp1258
Rp1259
(dp1260
g51
g52
(g53
tp1261
Rp1262
sg56
I00
sg57
I0
sbasg58
I56
sg59
g92
sg62
(dp1263
(I0
I0
tp1264
g96
sstp1265
Rp1266
ag0
(g10
g2
(dp1267
g12
g0
(g13
g8
(lp1268
g1240
ag0
(g15
g2
(dp1269
g17
S'g42'
p1270
sg19
I01
sg20
S'g42'
p1271
sg22
I01
sg23
I1
sg24
g73
sg26
F0.0
sg27
g73
sg29
S'g42'
p1272
sg31
I0
sg32
g75
sg34
I01
sg35
I3
sg36
g1270
sg37
I9042
stp1273
Rp1274
ag0
(g15
g2
(dp1275
g17
S'g14'
p1276
sg19
I01
sg20
S'g14'
p1277
sg22
I01
sg23
I1
sg24
g73
sg26
F0.0
sg27
g73
sg29
S'g14'
p1278
sg31
I0
sg32
g75
sg34
I01
sg35
I3
sg36
g1276
sg37
I9014
stp1279
Rp1280
atp1281
Rp1282
sg42
(lp1283
g81
asg23
(lp1284
g0
(g46
g8
(lp1285
tp1286
Rp1287
(dp1288
g51
g52
(g53
tp1289
Rp1290
sg56
I00
sg57
I0
sbasg58
I57
sg59
g92
sg62
(dp1291
(I0
I0
tp1292
g96
sstp1293
Rp1294
ag0
(g10
g2
(dp1295
g12
g0
(g13
g8
(lp1296
g1240
ag0
(g15
g2
(dp1297
g17
S'g52'
p1298
sg19
I01
sg20
S'g52'
p1299
sg22
I01
sg23
I1
sg24
g73
sg26
F0.0
sg27
g73
sg29
S'g52'
p1300
sg31
I0
sg32
g75
sg34
I01
sg35
I3
sg36
g1298
sg37
I9052
stp1301
Rp1302
ag0
(g15
g2
(dp1303
g17
S'g15'
p1304
sg19
I01
sg20
S'g15'
p1305
sg22
I01
sg23
I1
sg24
g73
sg26
F0.0
sg27
g73
sg29
S'g15'
p1306
sg31
I0
sg32
g75
sg34
I01
sg35
I3
sg36
g1304
sg37
I9015
stp1307
Rp1308
atp1309
Rp1310
sg42
(lp1311
g81
asg23
(lp1312
g0
(g46
g8
(lp1313
tp1314
Rp1315
(dp1316
g51
g52
(g53
tp1317
Rp1318
sg56
I00
sg57
I0
sbasg58
I58
sg59
g92
sg62
(dp1319
(I0
I0
tp1320
g96
sstp1321
Rp1322
ag0
(g10
g2
(dp1323
g12
g0
(g13
g8
(lp1324
g1240
ag0
(g15
g2
(dp1325
g17
S'g62'
p1326
sg19
I01
sg20
S'g62'
p1327
sg22
I01
sg23
I1
sg24
g73
sg26
F0.0
sg27
g73
sg29
S'g62'
p1328
sg31
I0
sg32
g75
sg34
I01
sg35
I3
sg36
g1326
sg37
I9062
stp1329
Rp1330
ag0
(g15
g2
(dp1331
g17
S'g16'
p1332
sg19
I01
sg20
S'g16'
p1333
sg22
I01
sg23
I1
sg24
g73
sg26
F0.0
sg27
g73
sg29
S'g16'
p1334
sg31
I0
sg32
g75
sg34
I01
sg35
I3
sg36
g1332
sg37
I9016
stp1335
Rp1336
atp1337
Rp1338
sg42
(lp1339
g81
asg23
(lp1340
g0
(g46
g8
(lp1341
tp1342
Rp1343
(dp1344
g51
g52
(g53
tp1345
Rp1346
sg56
I00
sg57
I0
sbasg58
I59
sg59
g92
sg62
(dp1347
(I0
I0
tp1348
g96
sstp1349
Rp1350
ag0
(g10
g2
(dp1351
g12
g0
(g13
g8
(lp1352
g1240
ag0
(g15
g2
(dp1353
g17
S'g72'
p1354
sg19
I01
sg20
S'g72'
p1355
sg22
I01
sg23
I1
sg24
g73
sg26
F0.0
sg27
g73
sg29
S'g72'
p1356
sg31
I0
sg32
g75
sg34
I01
sg35
I3
sg36
g1354
sg37
I9072
stp1357
Rp1358
ag0
(g15
g2
(dp1359
g17
S'g17'
p1360
sg19
I01
sg20
S'g17'
p1361
sg22
I01
sg23
I1
sg24
g73
sg26
F0.0
sg27
g73
sg29
S'g17'
p1362
sg31
I0
sg32
g75
sg34
I01
sg35
I3
sg36
g1360
sg37
I9017
stp1363
Rp1364
atp1365
Rp1366
sg42
(lp1367
g81
asg23
(lp1368
g0
(g46
g8
(lp1369
tp1370
Rp1371
(dp1372
g51
g52
(g53
tp1373
Rp1374
sg56
I00
sg57
I0
sbasg58
I60
sg59
g92
sg62
(dp1375
(I0
I0
tp1376
g96
sstp1377
Rp1378
ag0
(g10
g2
(dp1379
g12
g0
(g13
g8
(lp1380
g1240
ag0
(g15
g2
(dp1381
g17
S'g82'
p1382
sg19
I01
sg20
S'g82'
p1383
sg22
I01
sg23
I1
sg24
g73
sg26
F0.0
sg27
g73
sg29
S'g82'
p1384
sg31
I0
sg32
g75
sg34
I01
sg35
I3
sg36
g1382
sg37
I9082
stp1385
Rp1386
ag0
(g15
g2
(dp1387
g17
S'g18'
p1388
sg19
I01
sg20
S'g18'
p1389
sg22
I01
sg23
I1
sg24
g73
sg26
F0.0
sg27
g73
sg29
S'g18'
p1390
sg31
I0
sg32
g75
sg34
I01
sg35
I3
sg36
g1388
sg37
I9018
stp1391
Rp1392
atp1393
Rp1394
sg42
(lp1395
g81
asg23
(lp1396
g0
(g46
g8
(lp1397
tp1398
Rp1399
(dp1400
g51
g52
(g53
tp1401
Rp1402
sg56
I00
sg57
I0
sbasg58
I61
sg59
g92
sg62
(dp1403
(I0
I0
tp1404
g96
sstp1405
Rp1406
ag0
(g10
g2
(dp1407
g12
g0
(g13
g8
(lp1408
g0
(g15
g2
(dp1409
g17
S'g31'
p1410
sg19
I01
sg20
S'g31'
p1411
sg22
I01
sg23
I1
sg24
g73
sg26
F0.0
sg27
g73
sg29
S'g31'
p1412
sg31
I0
sg32
g75
sg34
I01
sg35
I3
sg36
g1410
sg37
I9031
stp1413
Rp1414
ag0
(g15
g2
(dp1415
g17
S'g43'
p1416
sg19
I01
sg20
S'g43'
p1417
sg22
I01
sg23
I1
sg24
g73
sg26
F0.0
sg27
g73
sg29
S'g43'
p1418
sg31
I0
sg32
g75
sg34
I01
sg35
I3
sg36
g1416
sg37
I9043
stp1419
Rp1420
ag1280
atp1421
Rp1422
sg42
(lp1423
g81
asg23
(lp1424
g0
(g46
g8
(lp1425
tp1426
Rp1427
(dp1428
g51
g52
(g53
tp1429
Rp1430
sg56
I00
sg57
I0
sbasg58
I62
sg59
g92
sg62
(dp1431
(I0
I0
tp1432
g96
sstp1433
Rp1434
ag0
(g10
g2
(dp1435
g12
g0
(g13
g8
(lp1436
g0
(g15
g2
(dp1437
g17
S'g41'
p1438
sg19
I01
sg20
S'g41'
p1439
sg22
I01
sg23
I1
sg24
g73
sg26
F0.0
sg27
g73
sg29
S'g41'
p1440
sg31
I0
sg32
g75
sg34
I01
sg35
I3
sg36
g1438
sg37
I9041
stp1441
Rp1442
ag0
(g15
g2
(dp1443
g17
S'g54'
p1444
sg19
I01
sg20
S'g54'
p1445
sg22
I01
sg23
I1
sg24
g73
sg26
F0.0
sg27
g73
sg29
S'g54'
p1446
sg31
I0
sg32
g75
sg34
I01
sg35
I3
sg36
g1444
sg37
I9054
stp1447
Rp1448
ag1308
atp1449
Rp1450
sg42
(lp1451
g81
asg23
(lp1452
g0
(g46
g8
(lp1453
tp1454
Rp1455
(dp1456
g51
g52
(g53
tp1457
Rp1458
sg56
I00
sg57
I0
sbasg58
I63
sg59
g92
sg62
(dp1459
(I0
I0
tp1460
g96
sstp1461
Rp1462
ag0
(g10
g2
(dp1463
g12
g0
(g13
g8
(lp1464
g0
(g15
g2
(dp1465
g17
S'g51'
p1466
sg19
I01
sg20
S'g51'
p1467
sg22
I01
sg23
I1
sg24
g73
sg26
F0.0
sg27
g73
sg29
S'g51'
p1468
sg31
I0
sg32
g75
sg34
I01
sg35
I3
sg36
g1466
sg37
I9051
stp1469
Rp1470
ag0
(g15
g2
(dp1471
g17
S'g65'
p1472
sg19
I01
sg20
S'g65'
p1473
sg22
I01
sg23
I1
sg24
g73
sg26
F0.0
sg27
g73
sg29
S'g65'
p1474
sg31
I0
sg32
g75
sg34
I01
sg35
I3
sg36
g1472
sg37
I9065
stp1475
Rp1476
ag1336
atp1477
Rp1478
sg42
(lp1479
g81
asg23
(lp1480
g0
(g46
g8
(lp1481
tp1482
Rp1483
(dp1484
g51
g52
(g53
tp1485
Rp1486
sg56
I00
sg57
I0
sbasg58
I64
sg59
g92
sg62
(dp1487
(I0
I0
tp1488
g96
sstp1489
Rp1490
ag0
(g10
g2
(dp1491
g12
g0
(g13
g8
(lp1492
g0
(g15
g2
(dp1493
g17
S'g61'
p1494
sg19
I01
sg20
S'g61'
p1495
sg22
I01
sg23
I1
sg24
g73
sg26
F0.0
sg27
g73
sg29
S'g61'
p1496
sg31
I0
sg32
g75
sg34
I01
sg35
I3
sg36
g1494
sg37
I9061
stp1497
Rp1498
ag0
(g15
g2
(dp1499
g17
S'g76'
p1500
sg19
I01
sg20
S'g76'
p1501
sg22
I01
sg23
I1
sg24
g73
sg26
F0.0
sg27
g73
sg29
S'g76'
p1502
sg31
I0
sg32
g75
sg34
I01
sg35
I3
sg36
g1500
sg37
I9076
stp1503
Rp1504
ag1364
atp1505
Rp1506
sg42
(lp1507
g81
asg23
(lp1508
g0
(g46
g8
(lp1509
tp1510
Rp1511
(dp1512
g51
g52
(g53
tp1513
Rp1514
sg56
I00
sg57
I0
sbasg58
I65
sg59
g92
sg62
(dp1515
(I0
I0
tp1516
g96
sstp1517
Rp1518
ag0
(g10
g2
(dp1519
g12
g0
(g13
g8
(lp1520
g0
(g15
g2
(dp1521
g17
S'g71'
p1522
sg19
I01
sg20
S'g71'
p1523
sg22
I01
sg23
I1
sg24
g73
sg26
F0.0
sg27
g73
sg29
S'g71'
p1524
sg31
I0
sg32
g75
sg34
I01
sg35
I3
sg36
g1522
sg37
I9071
stp1525
Rp1526
ag0
(g15
g2
(dp1527
g17
S'g87'
p1528
sg19
I01
sg20
S'g87'
p1529
sg22
I01
sg23
I1
sg24
g73
sg26
F0.0
sg27
g73
sg29
S'g87'
p1530
sg31
I0
sg32
g75
sg34
I01
sg35
I3
sg36
g1528
sg37
I9087
stp1531
Rp1532
ag1392
atp1533
Rp1534
sg42
(lp1535
g81
asg23
(lp1536
g0
(g46
g8
(lp1537
tp1538
Rp1539
(dp1540
g51
g52
(g53
tp1541
Rp1542
sg56
I00
sg57
I0
sbasg58
I66
sg59
g92
sg62
(dp1543
(I0
I0
tp1544
g96
sstp1545
Rp1546
ag0
(g10
g2
(dp1547
g12
g0
(g13
g8
(lp1548
g1246
ag1420
ag0
(g15
g2
(dp1549
g17
S'g24'
p1550
sg19
I01
sg20
S'g24'
p1551
sg22
I01
sg23
I1
sg24
g73
sg26
F0.0
sg27
g73
sg29
S'g24'
p1552
sg31
I0
sg32
g75
sg34
I01
sg35
I3
sg36
g1550
sg37
I9024
stp1553
Rp1554
atp1555
Rp1556
sg42
(lp1557
g81
asg23
(lp1558
g0
(g46
g8
(lp1559
tp1560
Rp1561
(dp1562
g51
g52
(g53
tp1563
Rp1564
sg56
I00
sg57
I0
sbasg58
I67
sg59
g92
sg62
(dp1565
(I0
I0
tp1566
g96
sstp1567
Rp1568
ag0
(g10
g2
(dp1569
g12
g0
(g13
g8
(lp1570
g1246
ag0
(g15
g2
(dp1571
g17
S'g53'
p1572
sg19
I01
sg20
S'g53'
p1573
sg22
I01
sg23
I1
sg24
g73
sg26
F0.0
sg27
g73
sg29
S'g53'
p1574
sg31
I0
sg32
g75
sg34
I01
sg35
I3
sg36
g1572
sg37
I9053
stp1575
Rp1576
ag0
(g15
g2
(dp1577
g17
S'g25'
p1578
sg19
I01
sg20
S'g25'
p1579
sg22
I01
sg23
I1
sg24
g73
sg26
F0.0
sg27
g73
sg29
S'g25'
p1580
sg31
I0
sg32
g75
sg34
I01
sg35
I3
sg36
g1578
sg37
I9025
stp1581
Rp1582
atp1583
Rp1584
sg42
(lp1585
g81
asg23
(lp1586
g0
(g46
g8
(lp1587
tp1588
Rp1589
(dp1590
g51
g52
(g53
tp1591
Rp1592
sg56
I00
sg57
I0
sbasg58
I68
sg59
g92
sg62
(dp1593
(I0
I0
tp1594
g96
sstp1595
Rp1596
ag0
(g10
g2
(dp1597
g12
g0
(g13
g8
(lp1598
g1246
ag0
(g15
g2
(dp1599
g17
S'g63'
p1600
sg19
I01
sg20
S'g63'
p1601
sg22
I01
sg23
I1
sg24
g73
sg26
F0.0
sg27
g73
sg29
S'g63'
p1602
sg31
I0
sg32
g75
sg34
I01
sg35
I3
sg36
g1600
sg37
I9063
stp1603
Rp1604
ag0
(g15
g2
(dp1605
g17
S'g26'
p1606
sg19
I01
sg20
S'g26'
p1607
sg22
I01
sg23
I1
sg24
g73
sg26
F0.0
sg27
g73
sg29
S'g26'
p1608
sg31
I0
sg32
g75
sg34
I01
sg35
I3
sg36
g1606
sg37
I9026
stp1609
Rp1610
atp1611
Rp1612
sg42
(lp1613
g81
asg23
(lp1614
g0
(g46
g8
(lp1615
tp1616
Rp1617
(dp1618
g51
g52
(g53
tp1619
Rp1620
sg56
I00
sg57
I0
sbasg58
I69
sg59
g92
sg62
(dp1621
(I0
I0
tp1622
g96
sstp1623
Rp1624
ag0
(g10
g2
(dp1625
g12
g0
(g13
g8
(lp1626
g1246
ag0
(g15
g2
(dp1627
g17
S'g73'
p1628
sg19
I01
sg20
S'g73'
p1629
sg22
I01
sg23
I1
sg24
g73
sg26
F0.0
sg27
g73
sg29
S'g73'
p1630
sg31
I0
sg32
g75
sg34
I01
sg35
I3
sg36
g1628
sg37
I9073
stp1631
Rp1632
ag0
(g15
g2
(dp1633
g17
S'g27'
p1634
sg19
I01
sg20
S'g27'
p1635
sg22
I01
sg23
I1
sg24
g73
sg26
F0.0
sg27
g73
sg29
S'g27'
p1636
sg31
I0
sg32
g75
sg34
I01
sg35
I3
sg36
g1634
sg37
I9027
stp1637
Rp1638
atp1639
Rp1640
sg42
(lp1641
g81
asg23
(lp1642
g0
(g46
g8
(lp1643
tp1644
Rp1645
(dp1646
g51
g52
(g53
tp1647
Rp1648
sg56
I00
sg57
I0
sbasg58
I70
sg59
g92
sg62
(dp1649
(I0
I0
tp1650
g96
sstp1651
Rp1652
ag0
(g10
g2
(dp1653
g12
g0
(g13
g8
(lp1654
g1246
ag0
(g15
g2
(dp1655
g17
S'g83'
p1656
sg19
I01
sg20
S'g83'
p1657
sg22
I01
sg23
I1
sg24
g73
sg26
F0.0
sg27
g73
sg29
S'g83'
p1658
sg31
I0
sg32
g75
sg34
I01
sg35
I3
sg36
g1656
sg37
I9083
stp1659
Rp1660
ag0
(g15
g2
(dp1661
g17
S'g28'
p1662
sg19
I01
sg20
S'g28'
p1663
sg22
I01
sg23
I1
sg24
g73
sg26
F0.0
sg27
g73
sg29
S'g28'
p1664
sg31
I0
sg32
g75
sg34
I01
sg35
I3
sg36
g1662
sg37
I9028
stp1665
Rp1666
atp1667
Rp1668
sg42
(lp1669
g81
asg23
(lp1670
g0
(g46
g8
(lp1671
tp1672
Rp1673
(dp1674
g51
g52
(g53
tp1675
Rp1676
sg56
I00
sg57
I0
sbasg58
I71
sg59
g92
sg62
(dp1677
(I0
I0
tp1678
g96
sstp1679
Rp1680
ag0
(g10
g2
(dp1681
g12
g0
(g13
g8
(lp1682
g1274
ag1448
ag1582
atp1683
Rp1684
sg42
(lp1685
g81
asg23
(lp1686
g0
(g46
g8
(lp1687
tp1688
Rp1689
(dp1690
g51
g52
(g53
tp1691
Rp1692
sg56
I00
sg57
I0
sbasg58
I72
sg59
g92
sg62
(dp1693
(I0
I0
tp1694
g96
sstp1695
Rp1696
ag0
(g10
g2
(dp1697
g12
g0
(g13
g8
(lp1698
g1302
ag1476
ag1610
atp1699
Rp1700
sg42
(lp1701
g81
asg23
(lp1702
g0
(g46
g8
(lp1703
tp1704
Rp1705
(dp1706
g51
g52
(g53
tp1707
Rp1708
sg56
I00
sg57
I0
sbasg58
I73
sg59
g92
sg62
(dp1709
(I0
I0
tp1710
g96
sstp1711
Rp1712
ag0
(g10
g2
(dp1713
g12
g0
(g13
g8
(lp1714
g1330
ag1504
ag1638
atp1715
Rp1716
sg42
(lp1717
g81
asg23
(lp1718
g0
(g46
g8
(lp1719
tp1720
Rp1721
(dp1722
g51
g52
(g53
tp1723
Rp1724
sg56
I00
sg57
I0
sbasg58
I74
sg59
g92
sg62
(dp1725
(I0
I0
tp1726
g96
sstp1727
Rp1728
ag0
(g10
g2
(dp1729
g12
g0
(g13
g8
(lp1730
g1358
ag1532
ag1666
atp1731
Rp1732
sg42
(lp1733
g81
asg23
(lp1734
g0
(g46
g8
(lp1735
tp1736
Rp1737
(dp1738
g51
g52
(g53
tp1739
Rp1740
sg56
I00
sg57
I0
sbasg58
I75
sg59
g92
sg62
(dp1741
(I0
I0
tp1742
g96
sstp1743
Rp1744
ag0
(g10
g2
(dp1745
g12
g0
(g13
g8
(lp1746
g1420
ag1448
ag0
(g15
g2
(dp1747
g17
S'g35'
p1748
sg19
I01
sg20
S'g35'
p1749
sg22
I01
sg23
I1
sg24
g73
sg26
F0.0
sg27
g73
sg29
S'g35'
p1750
sg31
I0
sg32
g75
sg34
I01
sg35
I3
sg36
g1748
sg37
I9035
stp1751
Rp1752
atp1753
Rp1754
sg42
(lp1755
g81
asg23
(lp1756
g0
(g46
g8
(lp1757
tp1758
Rp1759
(dp1760
g51
g52
(g53
tp1761
Rp1762
sg56
I00
sg57
I0
sbasg58
I76
sg59
g92
sg62
(dp1763
(I0
I0
tp1764
g96
sstp1765
Rp1766
ag0
(g10
g2
(dp1767
g12
g0
(g13
g8
(lp1768
g1420
ag0
(g15
g2
(dp1769
g17
S'g64'
p1770
sg19
I01
sg20
S'g64'
p1771
sg22
I01
sg23
I1
sg24
g73
sg26
F0.0
sg27
g73
sg29
S'g64'
p1772
sg31
I0
sg32
g75
sg34
I01
sg35
I3
sg36
g1770
sg37
I9064
stp1773
Rp1774
ag0
(g15
g2
(dp1775
g17
S'g36'
p1776
sg19
I01
sg20
S'g36'
p1777
sg22
I01
sg23
I1
sg24
g73
sg26
F0.0
sg27
g73
sg29
S'g36'
p1778
sg31
I0
sg32
g75
sg34
I01
sg35
I3
sg36
g1776
sg37
I9036
stp1779
Rp1780
atp1781
Rp1782
sg42
(lp1783
g81
asg23
(lp1784
g0
(g46
g8
(lp1785
tp1786
Rp1787
(dp1788
g51
g52
(g53
tp1789
Rp1790
sg56
I00
sg57
I0
sbasg58
I77
sg59
g92
sg62
(dp1791
(I0
I0
tp1792
g96
sstp1793
Rp1794
ag0
(g10
g2
(dp1795
g12
g0
(g13
g8
(lp1796
g1420
ag0
(g15
g2
(dp1797
g17
S'g74'
p1798
sg19
I01
sg20
S'g74'
p1799
sg22
I01
sg23
I1
sg24
g73
sg26
F0.0
sg27
g73
sg29
S'g74'
p1800
sg31
I0
sg32
g75
sg34
I01
sg35
I3
sg36
g1798
sg37
I9074
stp1801
Rp1802
ag0
(g15
g2
(dp1803
g17
S'g37'
p1804
sg19
I01
sg20
S'g37'
p1805
sg22
I01
sg23
I1
sg24
g73
sg26
F0.0
sg27
g73
sg29
S'g37'
p1806
sg31
I0
sg32
g75
sg34
I01
sg35
I3
sg36
g1804
sg37
I9037
stp1807
Rp1808
atp1809
Rp1810
sg42
(lp1811
g81
asg23
(lp1812
g0
(g46
g8
(lp1813
tp1814
Rp1815
(dp1816
g51
g52
(g53
tp1817
Rp1818
sg56
I00
sg57
I0
sbasg58
I78
sg59
g92
sg62
(dp1819
(I0
I0
tp1820
g96
sstp1821
Rp1822
ag0
(g10
g2
(dp1823
g12
g0
(g13
g8
(lp1824
g1420
ag0
(g15
g2
(dp1825
g17
S'g84'
p1826
sg19
I01
sg20
S'g84'
p1827
sg22
I01
sg23
I1
sg24
g73
sg26
F0.0
sg27
g73
sg29
S'g84'
p1828
sg31
I0
sg32
g75
sg34
I01
sg35
I3
sg36
g1826
sg37
I9084
stp1829
Rp1830
ag0
(g15
g2
(dp1831
g17
S'g38'
p1832
sg19
I01
sg20
S'g38'
p1833
sg22
I01
sg23
I1
sg24
g73
sg26
F0.0
sg27
g73
sg29
S'g38'
p1834
sg31
I0
sg32
g75
sg34
I01
sg35
I3
sg36
g1832
sg37
I9038
stp1835
Rp1836
atp1837
Rp1838
sg42
(lp1839
g81
asg23
(lp1840
g0
(g46
g8
(lp1841
tp1842
Rp1843
(dp1844
g51
g52
(g53
tp1845
Rp1846
sg56
I00
sg57
I0
sbasg58
I79
sg59
g92
sg62
(dp1847
(I0
I0
tp1848
g96
sstp1849
Rp1850
ag0
(g10
g2
(dp1851
g12
g0
(g13
g8
(lp1852
g1576
ag1476
ag1780
atp1853
Rp1854
sg42
(lp1855
g81
asg23
(lp1856
g0
(g46
g8
(lp1857
tp1858
Rp1859
(dp1860
g51
g52
(g53
tp1861
Rp1862
sg56
I00
sg57
I0
sbasg58
I80
sg59
g92
sg62
(dp1863
(I0
I0
tp1864
g96
sstp1865
Rp1866
ag0
(g10
g2
(dp1867
g12
g0
(g13
g8
(lp1868
g1604
ag1504
ag1808
atp1869
Rp1870
sg42
(lp1871
g81
asg23
(lp1872
g0
(g46
g8
(lp1873
tp1874
Rp1875
(dp1876
g51
g52
(g53
tp1877
Rp1878
sg56
I00
sg57
I0
sbasg58
I81
sg59
g92
sg62
(dp1879
(I0
I0
tp1880
g96
sstp1881
Rp1882
ag0
(g10
g2
(dp1883
g12
g0
(g13
g8
(lp1884
g1632
ag1532
ag1836
atp1885
Rp1886
sg42
(lp1887
g81
asg23
(lp1888
g0
(g46
g8
(lp1889
tp1890
Rp1891
(dp1892
g51
g52
(g53
tp1893
Rp1894
sg56
I00
sg57
I0
sbasg58
I82
sg59
g92
sg62
(dp1895
(I0
I0
tp1896
g96
sstp1897
Rp1898
ag0
(g10
g2
(dp1899
g12
g0
(g13
g8
(lp1900
g1448
ag1476
ag0
(g15
g2
(dp1901
g17
S'g46'
p1902
sg19
I01
sg20
S'g46'
p1903
sg22
I01
sg23
I1
sg24
g73
sg26
F0.0
sg27
g73
sg29
S'g46'
p1904
sg31
I0
sg32
g75
sg34
I01
sg35
I3
sg36
g1902
sg37
I9046
stp1905
Rp1906
atp1907
Rp1908
sg42
(lp1909
g81
asg23
(lp1910
g0
(g46
g8
(lp1911
tp1912
Rp1913
(dp1914
g51
g52
(g53
tp1915
Rp1916
sg56
I00
sg57
I0
sbasg58
I83
sg59
g92
sg62
(dp1917
(I0
I0
tp1918
g96
sstp1919
Rp1920
ag0
(g10
g2
(dp1921
g12
g0
(g13
g8
(lp1922
g1448
ag0
(g15
g2
(dp1923
g17
S'g75'
p1924
sg19
I01
sg20
S'g75'
p1925
sg22
I01
sg23
I1
sg24
g73
sg26
F0.0
sg27
g73
sg29
S'g75'
p1926
sg31
I0
sg32
g75
sg34
I01
sg35
I3
sg36
g1924
sg37
I9075
stp1927
Rp1928
ag0
(g15
g2
(dp1929
g17
S'g47'
p1930
sg19
I01
sg20
S'g47'
p1931
sg22
I01
sg23
I1
sg24
g73
sg26
F0.0
sg27
g73
sg29
S'g47'
p1932
sg31
I0
sg32
g75
sg34
I01
sg35
I3
sg36
g1930
sg37
I9047
stp1933
Rp1934
atp1935
Rp1936
sg42
(lp1937
g81
asg23
(lp1938
g0
(g46
g8
(lp1939
tp1940
Rp1941
(dp1942
g51
g52
(g53
tp1943
Rp1944
sg56
I00
sg57
I0
sbasg58
I84
sg59
g92
sg62
(dp1945
(I0
I0
tp1946
g96
sstp1947
Rp1948
ag0
(g10
g2
(dp1949
g12
g0
(g13
g8
(lp1950
g1448
ag0
(g15
g2
(dp1951
g17
S'g85'
p1952
sg19
I01
sg20
S'g85'
p1953
sg22
I01
sg23
I1
sg24
g73
sg26
F0.0
sg27
g73
sg29
S'g85'
p1954
sg31
I0
sg32
g75
sg34
I01
sg35
I3
sg36
g1952
sg37
I9085
stp1955
Rp1956
ag0
(g15
g2
(dp1957
g17
S'g48'
p1958
sg19
I01
sg20
S'g48'
p1959
sg22
I01
sg23
I1
sg24
g73
sg26
F0.0
sg27
g73
sg29
S'g48'
p1960
sg31
I0
sg32
g75
sg34
I01
sg35
I3
sg36
g1958
sg37
I9048
stp1961
Rp1962
atp1963
Rp1964
sg42
(lp1965
g81
asg23
(lp1966
g0
(g46
g8
(lp1967
tp1968
Rp1969
(dp1970
g51
g52
(g53
tp1971
Rp1972
sg56
I00
sg57
I0
sbasg58
I85
sg59
g92
sg62
(dp1973
(I0
I0
tp1974
g96
sstp1975
Rp1976
ag0
(g10
g2
(dp1977
g12
g0
(g13
g8
(lp1978
g1774
ag1504
ag1934
atp1979
Rp1980
sg42
(lp1981
g81
asg23
(lp1982
g0
(g46
g8
(lp1983
tp1984
Rp1985
(dp1986
g51
g52
(g53
tp1987
Rp1988
sg56
I00
sg57
I0
sbasg58
I86
sg59
g92
sg62
(dp1989
(I0
I0
tp1990
g96
sstp1991
Rp1992
ag0
(g10
g2
(dp1993
g12
g0
(g13
g8
(lp1994
g1802
ag1532
ag1962
atp1995
Rp1996
sg42
(lp1997
g81
asg23
(lp1998
g0
(g46
g8
(lp1999
tp2000
Rp2001
(dp2002
g51
g52
(g53
tp2003
Rp2004
sg56
I00
sg57
I0
sbasg58
I87
sg59
g92
sg62
(dp2005
(I0
I0
tp2006
g96
sstp2007
Rp2008
ag0
(g10
g2
(dp2009
g12
g0
(g13
g8
(lp2010
g1476
ag1504
ag0
(g15
g2
(dp2011
g17
S'g57'
p2012
sg19
I01
sg20
S'g57'
p2013
sg22
I01
sg23
I1
sg24
g73
sg26
F0.0
sg27
g73
sg29
S'g57'
p2014
sg31
I0
sg32
g75
sg34
I01
sg35
I3
sg36
g2012
sg37
I9057
stp2015
Rp2016
atp2017
Rp2018
sg42
(lp2019
g81
asg23
(lp2020
g0
(g46
g8
(lp2021
tp2022
Rp2023
(dp2024
g51
g52
(g53
tp2025
Rp2026
sg56
I00
sg57
I0
sbasg58
I88
sg59
g92
sg62
(dp2027
(I0
I0
tp2028
g96
sstp2029
Rp2030
ag0
(g10
g2
(dp2031
g12
g0
(g13
g8
(lp2032
g1476
ag0
(g15
g2
(dp2033
g17
S'g86'
p2034
sg19
I01
sg20
S'g86'
p2035
sg22
I01
sg23
I1
sg24
g73
sg26
F0.0
sg27
g73
sg29
S'g86'
p2036
sg31
I0
sg32
g75
sg34
I01
sg35
I3
sg36
g2034
sg37
I9086
stp2037
Rp2038
ag0
(g15
g2
(dp2039
g17
S'g58'
p2040
sg19
I01
sg20
S'g58'
p2041
sg22
I01
sg23
I1
sg24
g73
sg26
F0.0
sg27
g73
sg29
S'g58'
p2042
sg31
I0
sg32
g75
sg34
I01
sg35
I3
sg36
g2040
sg37
I9058
stp2043
Rp2044
atp2045
Rp2046
sg42
(lp2047
g81
asg23
(lp2048
g0
(g46
g8
(lp2049
tp2050
Rp2051
(dp2052
g51
g52
(g53
tp2053
Rp2054
sg56
I00
sg57
I0
sbasg58
I89
sg59
g92
sg62
(dp2055
(I0
I0
tp2056
g96
sstp2057
Rp2058
ag0
(g10
g2
(dp2059
g12
g0
(g13
g8
(lp2060
g1928
ag1532
ag2044
atp2061
Rp2062
sg42
(lp2063
g81
asg23
(lp2064
g0
(g46
g8
(lp2065
tp2066
Rp2067
(dp2068
g51
g52
(g53
tp2069
Rp2070
sg56
I00
sg57
I0
sbasg58
I90
sg59
g92
sg62
(dp2071
(I0
I0
tp2072
g96
sstp2073
Rp2074
ag0
(g10
g2
(dp2075
g12
g0
(g13
g8
(lp2076
g1504
ag1532
ag0
(g15
g2
(dp2077
g17
S'g68'
p2078
sg19
I01
sg20
S'g68'
p2079
sg22
I01
sg23
I1
sg24
g73
sg26
F0.0
sg27
g73
sg29
S'g68'
p2080
sg31
I0
sg32
g75
sg34
I01
sg35
I3
sg36
g2078
sg37
I9068
stp2081
Rp2082
atp2083
Rp2084
sg42
(lp2085
g81
asg23
(lp2086
g0
(g46
g8
(lp2087
tp2088
Rp2089
(dp2090
g51
g52
(g53
tp2091
Rp2092
sg56
I00
sg57
I0
sbasg58
I91
sg59
g92
sg62
(dp2093
(I0
I0
tp2094
g96
sstp2095
Rp2096
ag0
(g10
g2
(dp2097
g12
g0
(g13
g8
(lp2098
g1532
ag0
(g15
g2
(dp2099
g17
S'g98'
p2100
sg19
I01
sg20
S'g98'
p2101
sg22
I01
sg23
I1
sg24
g73
sg26
F0.0
sg27
g73
sg29
S'g98'
p2102
sg31
I0
sg32
g75
sg34
I01
sg35
I3
sg36
g2100
sg37
I9098
stp2103
Rp2104
ag0
(g15
g2
(dp2105
g17
S'g79'
p2106
sg19
I01
sg20
S'g79'
p2107
sg22
I01
sg23
I1
sg24
g73
sg26
F0.0
sg27
g73
sg29
S'g79'
p2108
sg31
I0
sg32
g75
sg34
I01
sg35
I3
sg36
g2106
sg37
I9079
stp2109
Rp2110
atp2111
Rp2112
sg42
(lp2113
g81
asg23
(lp2114
g0
(g46
g8
(lp2115
tp2116
Rp2117
(dp2118
g51
g52
(g53
tp2119
Rp2120
sg56
I00
sg57
I0
sbasg58
I92
sg59
g92
sg62
(dp2121
(I0
I0
tp2122
g96
sstp2123
Rp2124
ag0
(g10
g2
(dp2125
g12
g0
(g13
g8
(lp2126
g1240
ag1246
ag1420
ag1280
atp2127
Rp2128
sg42
(lp2129
S'GLUON4'
p2130
asg23
(lp2131
g0
(g46
g8
(lp2132
tp2133
Rp2134
(dp2135
g51
g52
(g53
tp2136
Rp2137
sg56
I00
sg57
I0
sbasg58
I93
sg59
(dp2138
g93
I1
ssg62
(dp2139
(I0
I0
tp2140
S'G2'
p2141
sstp2142
Rp2143
ag0
(g10
g2
(dp2144
g12
g0
(g13
g8
(lp2145
g1240
ag1246
ag1576
ag1308
atp2146
Rp2147
sg42
(lp2148
g2130
asg23
(lp2149
g0
(g46
g8
(lp2150
tp2151
Rp2152
(dp2153
g51
g52
(g53
tp2154
Rp2155
sg56
I00
sg57
I0
sbasg58
I94
sg59
g2138
sg62
(dp2156
(I0
I0
tp2157
g2141
sstp2158
Rp2159
ag0
(g10
g2
(dp2160
g12
g0
(g13
g8
(lp2161
g1240
ag1246
ag1604
ag1336
atp2162
Rp2163
sg42
(lp2164
g2130
asg23
(lp2165
g0
(g46
g8
(lp2166
tp2167
Rp2168
(dp2169
g51
g52
(g53
tp2170
Rp2171
sg56
I00
sg57
I0
sbasg58
I95
sg59
g2138
sg62
(dp2172
(I0
I0
tp2173
g2141
sstp2174
Rp2175
ag0
(g10
g2
(dp2176
g12
g0
(g13
g8
(lp2177
g1240
ag1246
ag1632
ag1364
atp2178
Rp2179
sg42
(lp2180
g2130
asg23
(lp2181
g0
(g46
g8
(lp2182
tp2183
Rp2184
(dp2185
g51
g52
(g53
tp2186
Rp2187
sg56
I00
sg57
I0
sbasg58
I96
sg59
g2138
sg62
(dp2188
(I0
I0
tp2189
g2141
sstp2190
Rp2191
ag0
(g10
g2
(dp2192
g12
g0
(g13
g8
(lp2193
g1240
ag1246
ag1660
ag1392
atp2194
Rp2195
sg42
(lp2196
g2130
asg23
(lp2197
g0
(g46
g8
(lp2198
tp2199
Rp2200
(dp2201
g51
g52
(g53
tp2202
Rp2203
sg56
I00
sg57
I0
sbasg58
I97
sg59
g2138
sg62
(dp2204
(I0
I0
tp2205
g2141
sstp2206
Rp2207
ag0
(g10
g2
(dp2208
g12
g0
(g13
g8
(lp2209
g1240
ag1274
ag1448
ag1308
atp2210
Rp2211
sg42
(lp2212
g2130
asg23
(lp2213
g0
(g46
g8
(lp2214
tp2215
Rp2216
(dp2217
g51
g52
(g53
tp2218
Rp2219
sg56
I00
sg57
I0
sbasg58
I98
sg59
g2138
sg62
(dp2220
(I0
I0
tp2221
g2141
sstp2222
Rp2223
ag0
(g10
g2
(dp2224
g12
g0
(g13
g8
(lp2225
g1240
ag1302
ag1476
ag1336
atp2226
Rp2227
sg42
(lp2228
g2130
asg23
(lp2229
g0
(g46
g8
(lp2230
tp2231
Rp2232
(dp2233
g51
g52
(g53
tp2234
Rp2235
sg56
I00
sg57
I0
sbasg58
I99
sg59
g2138
sg62
(dp2236
(I0
I0
tp2237
g2141
sstp2238
Rp2239
ag0
(g10
g2
(dp2240
g12
g0
(g13
g8
(lp2241
g1240
ag1330
ag1504
ag1364
atp2242
Rp2243
sg42
(lp2244
g2130
asg23
(lp2245
g0
(g46
g8
(lp2246
tp2247
Rp2248
(dp2249
g51
g52
(g53
tp2250
Rp2251
sg56
I00
sg57
I0
sbasg58
I100
sg59
g2138
sg62
(dp2252
(I0
I0
tp2253
g2141
sstp2254
Rp2255
ag0
(g10
g2
(dp2256
g12
g0
(g13
g8
(lp2257
g1240
ag1358
ag1532
ag1392
atp2258
Rp2259
sg42
(lp2260
g2130
asg23
(lp2261
g0
(g46
g8
(lp2262
tp2263
Rp2264
(dp2265
g51
g52
(g53
tp2266
Rp2267
sg56
I00
sg57
I0
sbasg58
I101
sg59
g2138
sg62
(dp2268
(I0
I0
tp2269
g2141
sstp2270
Rp2271
ag0
(g10
g2
(dp2272
g12
g0
(g13
g8
(lp2273
g1414
ag1420
ag1448
ag1308
atp2274
Rp2275
sg42
(lp2276
g2130
asg23
(lp2277
g0
(g46
g8
(lp2278
tp2279
Rp2280
(dp2281
g51
g52
(g53
tp2282
Rp2283
sg56
I00
sg57
I0
sbasg58
I102
sg59
g2138
sg62
(dp2284
(I0
I0
tp2285
g2141
sstp2286
Rp2287
ag0
(g10
g2
(dp2288
g12
g0
(g13
g8
(lp2289
g1442
ag1448
ag1476
ag1336
atp2290
Rp2291
sg42
(lp2292
g2130
asg23
(lp2293
g0
(g46
g8
(lp2294
tp2295
Rp2296
(dp2297
g51
g52
(g53
tp2298
Rp2299
sg56
I00
sg57
I0
sbasg58
I103
sg59
g2138
sg62
(dp2300
(I0
I0
tp2301
g2141
sstp2302
Rp2303
ag0
(g10
g2
(dp2304
g12
g0
(g13
g8
(lp2305
g1470
ag1476
ag1504
ag1364
atp2306
Rp2307
sg42
(lp2308
g2130
asg23
(lp2309
g0
(g46
g8
(lp2310
tp2311
Rp2312
(dp2313
g51
g52
(g53
tp2314
Rp2315
sg56
I00
sg57
I0
sbasg58
I104
sg59
g2138
sg62
(dp2316
(I0
I0
tp2317
g2141
sstp2318
Rp2319
ag0
(g10
g2
(dp2320
g12
g0
(g13
g8
(lp2321
g1498
ag1504
ag1532
ag1392
atp2322
Rp2323
sg42
(lp2324
g2130
asg23
(lp2325
g0
(g46
g8
(lp2326
tp2327
Rp2328
(dp2329
g51
g52
(g53
tp2330
Rp2331
sg56
I00
sg57
I0
sbasg58
I105
sg59
g2138
sg62
(dp2332
(I0
I0
tp2333
g2141
sstp2334
Rp2335
ag0
(g10
g2
(dp2336
g12
g0
(g13
g8
(lp2337
g1246
ag1420
ag1448
ag1582
atp2338
Rp2339
sg42
(lp2340
g2130
asg23
(lp2341
g0
(g46
g8
(lp2342
tp2343
Rp2344
(dp2345
g51
g52
(g53
tp2346
Rp2347
sg56
I00
sg57
I0
sbasg58
I106
sg59
g2138
sg62
(dp2348
(I0
I0
tp2349
g2141
sstp2350
Rp2351
ag0
(g10
g2
(dp2352
g12
g0
(g13
g8
(lp2353
g1246
ag1420
ag1774
ag1610
atp2354
Rp2355
sg42
(lp2356
g2130
asg23
(lp2357
g0
(g46
g8
(lp2358
tp2359
Rp2360
(dp2361
g51
g52
(g53
tp2362
Rp2363
sg56
I00
sg57
I0
sbasg58
I107
sg59
g2138
sg62
(dp2364
(I0
I0
tp2365
g2141
sstp2366
Rp2367
ag0
(g10
g2
(dp2368
g12
g0
(g13
g8
(lp2369
g1246
ag1420
ag1802
ag1638
atp2370
Rp2371
sg42
(lp2372
g2130
asg23
(lp2373
g0
(g46
g8
(lp2374
tp2375
Rp2376
(dp2377
g51
g52
(g53
tp2378
Rp2379
sg56
I00
sg57
I0
sbasg58
I108
sg59
g2138
sg62
(dp2380
(I0
I0
tp2381
g2141
sstp2382
Rp2383
ag0
(g10
g2
(dp2384
g12
g0
(g13
g8
(lp2385
g1246
ag1420
ag1830
ag1666
atp2386
Rp2387
sg42
(lp2388
g2130
asg23
(lp2389
g0
(g46
g8
(lp2390
tp2391
Rp2392
(dp2393
g51
g52
(g53
tp2394
Rp2395
sg56
I00
sg57
I0
sbasg58
I109
sg59
g2138
sg62
(dp2396
(I0
I0
tp2397
g2141
sstp2398
Rp2399
ag0
(g10
g2
(dp2400
g12
g0
(g13
g8
(lp2401
g1246
ag1576
ag1476
ag1610
atp2402
Rp2403
sg42
(lp2404
g2130
asg23
(lp2405
g0
(g46
g8
(lp2406
tp2407
Rp2408
(dp2409
g51
g52
(g53
tp2410
Rp2411
sg56
I00
sg57
I0
sbasg58
I110
sg59
g2138
sg62
(dp2412
(I0
I0
tp2413
g2141
sstp2414
Rp2415
ag0
(g10
g2
(dp2416
g12
g0
(g13
g8
(lp2417
g1246
ag1604
ag1504
ag1638
atp2418
Rp2419
sg42
(lp2420
g2130
asg23
(lp2421
g0
(g46
g8
(lp2422
tp2423
Rp2424
(dp2425
g51
g52
(g53
tp2426
Rp2427
sg56
I00
sg57
I0
sbasg58
I111
sg59
g2138
sg62
(dp2428
(I0
I0
tp2429
g2141
sstp2430
Rp2431
ag0
(g10
g2
(dp2432
g12
g0
(g13
g8
(lp2433
g1246
ag1632
ag1532
ag1666
atp2434
Rp2435
sg42
(lp2436
g2130
asg23
(lp2437
g0
(g46
g8
(lp2438
tp2439
Rp2440
(dp2441
g51
g52
(g53
tp2442
Rp2443
sg56
I00
sg57
I0
sbasg58
I112
sg59
g2138
sg62
(dp2444
(I0
I0
tp2445
g2141
sstp2446
Rp2447
ag0
(g10
g2
(dp2448
g12
g0
(g13
g8
(lp2449
g1274
ag1448
ag1476
ag1610
atp2450
Rp2451
sg42
(lp2452
g2130
asg23
(lp2453
g0
(g46
g8
(lp2454
tp2455
Rp2456
(dp2457
g51
g52
(g53
tp2458
Rp2459
sg56
I00
sg57
I0
sbasg58
I113
sg59
g2138
sg62
(dp2460
(I0
I0
tp2461
g2141
sstp2462
Rp2463
ag0
(g10
g2
(dp2464
g12
g0
(g13
g8
(lp2465
g1302
ag1476
ag1504
ag1638
atp2466
Rp2467
sg42
(lp2468
g2130
asg23
(lp2469
g0
(g46
g8
(lp2470
tp2471
Rp2472
(dp2473
g51
g52
(g53
tp2474
Rp2475
sg56
I00
sg57
I0
sbasg58
I114
sg59
g2138
sg62
(dp2476
(I0
I0
tp2477
g2141
sstp2478
Rp2479
ag0
(g10
g2
(dp2480
g12
g0
(g13
g8
(lp2481
g1330
ag1504
ag1532
ag1666
atp2482
Rp2483
sg42
(lp2484
g2130
asg23
(lp2485
g0
(g46
g8
(lp2486
tp2487
Rp2488
(dp2489
g51
g52
(g53
tp2490
Rp2491
sg56
I00
sg57
I0
sbasg58
I115
sg59
g2138
sg62
(dp2492
(I0
I0
tp2493
g2141
sstp2494
Rp2495
ag0
(g10
g2
(dp2496
g12
g0
(g13
g8
(lp2497
g1420
ag1448
ag1476
ag1780
atp2498
Rp2499
sg42
(lp2500
g2130
asg23
(lp2501
g0
(g46
g8
(lp2502
tp2503
Rp2504
(dp2505
g51
g52
(g53
tp2506
Rp2507
sg56
I00
sg57
I0
sbasg58
I116
sg59
g2138
sg62
(dp2508
(I0
I0
tp2509
g2141
sstp2510
Rp2511
ag0
(g10
g2
(dp2512
g12
g0
(g13
g8
(lp2513
g1420
ag1448
ag1928
ag1808
atp2514
Rp2515
sg42
(lp2516
g2130
asg23
(lp2517
g0
(g46
g8
(lp2518
tp2519
Rp2520
(dp2521
g51
g52
(g53
tp2522
Rp2523
sg56
I00
sg57
I0
sbasg58
I117
sg59
g2138
sg62
(dp2524
(I0
I0
tp2525
g2141
sstp2526
Rp2527
ag0
(g10
g2
(dp2528
g12
g0
(g13
g8
(lp2529
g1420
ag1448
ag1956
ag1836
atp2530
Rp2531
sg42
(lp2532
g2130
asg23
(lp2533
g0
(g46
g8
(lp2534
tp2535
Rp2536
(dp2537
g51
g52
(g53
tp2538
Rp2539
sg56
I00
sg57
I0
sbasg58
I118
sg59
g2138
sg62
(dp2540
(I0
I0
tp2541
g2141
sstp2542
Rp2543
ag0
(g10
g2
(dp2544
g12
g0
(g13
g8
(lp2545
g1420
ag1774
ag1504
ag1808
atp2546
Rp2547
sg42
(lp2548
g2130
asg23
(lp2549
g0
(g46
g8
(lp2550
tp2551
Rp2552
(dp2553
g51
g52
(g53
tp2554
Rp2555
sg56
I00
sg57
I0
sbasg58
I119
sg59
g2138
sg62
(dp2556
(I0
I0
tp2557
g2141
sstp2558
Rp2559
ag0
(g10
g2
(dp2560
g12
g0
(g13
g8
(lp2561
g1420
ag1802
ag1532
ag1836
atp2562
Rp2563
sg42
(lp2564
g2130
asg23
(lp2565
g0
(g46
g8
(lp2566
tp2567
Rp2568
(dp2569
g51
g52
(g53
tp2570
Rp2571
sg56
I00
sg57
I0
sbasg58
I120
sg59
g2138
sg62
(dp2572
(I0
I0
tp2573
g2141
sstp2574
Rp2575
ag0
(g10
g2
(dp2576
g12
g0
(g13
g8
(lp2577
g1576
ag1476
ag1504
ag1808
atp2578
Rp2579
sg42
(lp2580
g2130
asg23
(lp2581
g0
(g46
g8
(lp2582
tp2583
Rp2584
(dp2585
g51
g52
(g53
tp2586
Rp2587
sg56
I00
sg57
I0
sbasg58
I121
sg59
g2138
sg62
(dp2588
(I0
I0
tp2589
g2141
sstp2590
Rp2591
ag0
(g10
g2
(dp2592
g12
g0
(g13
g8
(lp2593
g1604
ag1504
ag1532
ag1836
atp2594
Rp2595
sg42
(lp2596
g2130
asg23
(lp2597
g0
(g46
g8
(lp2598
tp2599
Rp2600
(dp2601
g51
g52
(g53
tp2602
Rp2603
sg56
I00
sg57
I0
sbasg58
I122
sg59
g2138
sg62
(dp2604
(I0
I0
tp2605
g2141
sstp2606
Rp2607
ag0
(g10
g2
(dp2608
g12
g0
(g13
g8
(lp2609
g1448
ag1476
ag1504
ag1934
atp2610
Rp2611
sg42
(lp2612
g2130
asg23
(lp2613
g0
(g46
g8
(lp2614
tp2615
Rp2616
(dp2617
g51
g52
(g53
tp2618
Rp2619
sg56
I00
sg57
I0
sbasg58
I123
sg59
g2138
sg62
(dp2620
(I0
I0
tp2621
g2141
sstp2622
Rp2623
ag0
(g10
g2
(dp2624
g12
g0
(g13
g8
(lp2625
g1448
ag1476
ag2038
ag1962
atp2626
Rp2627
sg42
(lp2628
g2130
asg23
(lp2629
g0
(g46
g8
(lp2630
tp2631
Rp2632
(dp2633
g51
g52
(g53
tp2634
Rp2635
sg56
I00
sg57
I0
sbasg58
I124
sg59
g2138
sg62
(dp2636
(I0
I0
tp2637
g2141
sstp2638
Rp2639
ag0
(g10
g2
(dp2640
g12
g0
(g13
g8
(lp2641
g1448
ag1928
ag1532
ag1962
atp2642
Rp2643
sg42
(lp2644
g2130
asg23
(lp2645
g0
(g46
g8
(lp2646
tp2647
Rp2648
(dp2649
g51
g52
(g53
tp2650
Rp2651
sg56
I00
sg57
I0
sbasg58
I125
sg59
g2138
sg62
(dp2652
(I0
I0
tp2653
g2141
sstp2654
Rp2655
ag0
(g10
g2
(dp2656
g12
g0
(g13
g8
(lp2657
g1774
ag1504
ag1532
ag1962
atp2658
Rp2659
sg42
(lp2660
g2130
asg23
(lp2661
g0
(g46
g8
(lp2662
tp2663
Rp2664
(dp2665
g51
g52
(g53
tp2666
Rp2667
sg56
I00
sg57
I0
sbasg58
I126
sg59
g2138
sg62
(dp2668
(I0
I0
tp2669
g2141
sstp2670
Rp2671
ag0
(g10
g2
(dp2672
g12
g0
(g13
g8
(lp2673
g1476
ag1504
ag1532
ag2044
atp2674
Rp2675
sg42
(lp2676
g2130
asg23
(lp2677
g0
(g46
g8
(lp2678
tp2679
Rp2680
(dp2681
g51
g52
(g53
tp2682
Rp2683
sg56
I00
sg57
I0
sbasg58
I127
sg59
g2138
sg62
(dp2684
(I0
I0
tp2685
g2141
sstp2686
Rp2687
ag0
(g10
g2
(dp2688
g12
g0
(g13
g8
(lp2689
g1504
ag1532
ag2104
ag0
(g15
g2
(dp2690
g17
S'g69'
p2691
sg19
I01
sg20
S'g69'
p2692
sg22
I01
sg23
I1
sg24
g73
sg26
F0.0
sg27
g73
sg29
S'g69'
p2693
sg31
I0
sg32
g75
sg34
I01
sg35
I3
sg36
g2691
sg37
I9069
stp2694
Rp2695
atp2696
Rp2697
sg42
(lp2698
g2130
asg23
(lp2699
g0
(g46
g8
(lp2700
tp2701
Rp2702
(dp2703
g51
g52
(g53
tp2704
Rp2705
sg56
I00
sg57
I0
sbasg58
I128
sg59
g2138
sg62
(dp2706
(I0
I0
tp2707
g2141
sstp2708
Rp2709
ag0
(g10
g2
(dp2710
g12
g0
(g13
g8
(lp2711
g1240
ag1246
ag1420
ag1448
ag1308
atp2712
Rp2713
sg42
(lp2714
S'GLUON5'
p2715
asg23
(lp2716
g0
(g46
g8
(lp2717
tp2718
Rp2719
(dp2720
g51
g52
(g53
tp2721
Rp2722
sg56
I00
sg57
I0
sbasg58
I129
sg59
g2138
sg62
(dp2723
(I0
I0
tp2724
g2141
sstp2725
Rp2726
ag0
(g10
g2
(dp2727
g12
g0
(g13
g8
(lp2728
g1240
ag1246
ag1420
ag1774
ag1336
atp2729
Rp2730
sg42
(lp2731
g2715
asg23
(lp2732
g0
(g46
g8
(lp2733
tp2734
Rp2735
(dp2736
g51
g52
(g53
tp2737
Rp2738
sg56
I00
sg57
I0
sbasg58
I130
sg59
g2138
sg62
(dp2739
(I0
I0
tp2740
g2141
sstp2741
Rp2742
ag0
(g10
g2
(dp2743
g12
g0
(g13
g8
(lp2744
g1240
ag1246
ag1420
ag1802
ag1364
atp2745
Rp2746
sg42
(lp2747
g2715
asg23
(lp2748
g0
(g46
g8
(lp2749
tp2750
Rp2751
(dp2752
g51
g52
(g53
tp2753
Rp2754
sg56
I00
sg57
I0
sbasg58
I131
sg59
g2138
sg62
(dp2755
(I0
I0
tp2756
g2141
sstp2757
Rp2758
ag0
(g10
g2
(dp2759
g12
g0
(g13
g8
(lp2760
g1240
ag1246
ag1420
ag1830
ag1392
atp2761
Rp2762
sg42
(lp2763
g2715
asg23
(lp2764
g0
(g46
g8
(lp2765
tp2766
Rp2767
(dp2768
g51
g52
(g53
tp2769
Rp2770
sg56
I00
sg57
I0
sbasg58
I132
sg59
g2138
sg62
(dp2771
(I0
I0
tp2772
g2141
sstp2773
Rp2774
ag0
(g10
g2
(dp2775
g12
g0
(g13
g8
(lp2776
g1240
ag1246
ag1576
ag1476
ag1336
atp2777
Rp2778
sg42
(lp2779
g2715
asg23
(lp2780
g0
(g46
g8
(lp2781
tp2782
Rp2783
(dp2784
g51
g52
(g53
tp2785
Rp2786
sg56
I00
sg57
I0
sbasg58
I133
sg59
g2138
sg62
(dp2787
(I0
I0
tp2788
g2141
sstp2789
Rp2790
ag0
(g10
g2
(dp2791
g12
g0
(g13
g8
(lp2792
g1240
ag1246
ag1604
ag1504
ag1364
atp2793
Rp2794
sg42
(lp2795
g2715
asg23
(lp2796
g0
(g46
g8
(lp2797
tp2798
Rp2799
(dp2800
g51
g52
(g53
tp2801
Rp2802
sg56
I00
sg57
I0
sbasg58
I134
sg59
g2138
sg62
(dp2803
(I0
I0
tp2804
g2141
sstp2805
Rp2806
ag0
(g10
g2
(dp2807
g12
g0
(g13
g8
(lp2808
g1240
ag1246
ag1632
ag1532
ag1392
atp2809
Rp2810
sg42
(lp2811
g2715
asg23
(lp2812
g0
(g46
g8
(lp2813
tp2814
Rp2815
(dp2816
g51
g52
(g53
tp2817
Rp2818
sg56
I00
sg57
I0
sbasg58
I135
sg59
g2138
sg62
(dp2819
(I0
I0
tp2820
g2141
sstp2821
Rp2822
ag0
(g10
g2
(dp2823
g12
g0
(g13
g8
(lp2824
g1240
ag1274
ag1448
ag1476
ag1336
atp2825
Rp2826
sg42
(lp2827
g2715
asg23
(lp2828
g0
(g46
g8
(lp2829
tp2830
Rp2831
(dp2832
g51
g52
(g53
tp2833
Rp2834
sg56
I00
sg57
I0
sbasg58
I136
sg59
g2138
sg62
(dp2835
(I0
I0
tp2836
g2141
sstp2837
Rp2838
ag0
(g10
g2
(dp2839
g12
g0
(g13
g8
(lp2840
g1240
ag1302
ag1476
ag1504
ag1364
atp2841
Rp2842
sg42
(lp2843
g2715
asg23
(lp2844
g0
(g46
g8
(lp2845
tp2846
Rp2847
(dp2848
g51
g52
(g53
tp2849
Rp2850
sg56
I00
sg57
I0
sbasg58
I137
sg59
g2138
sg62
(dp2851
(I0
I0
tp2852
g2141
sstp2853
Rp2854
ag0
(g10
g2
(dp2855
g12
g0
(g13
g8
(lp2856
g1240
ag1330
ag1504
ag1532
ag1392
atp2857
Rp2858
sg42
(lp2859
g2715
asg23
(lp2860
g0
(g46
g8
(lp2861
tp2862
Rp2863
(dp2864
g51
g52
(g53
tp2865
Rp2866
sg56
I00
sg57
I0
sbasg58
I138
sg59
g2138
sg62
(dp2867
(I0
I0
tp2868
g2141
sstp2869
Rp2870
ag0
(g10
g2
(dp2871
g12
g0
(g13
g8
(lp2872
g1414
ag1420
ag1448
ag1476
ag1336
atp2873
Rp2874
sg42
(lp2875
g2715
asg23
(lp2876
g0
(g46
g8
(lp2877
tp2878
Rp2879
(dp2880
g51
g52
(g53
tp2881
Rp2882
sg56
I00
sg57
I0
sbasg58
I139
sg59
g2138
sg62
(dp2883
(I0
I0
tp2884
g2141
sstp2885
Rp2886
ag0
(g10
g2
(dp2887
g12
g0
(g13
g8
(lp2888
g1442
ag1448
ag1476
ag1504
ag1364
atp2889
Rp2890
sg42
(lp2891
g2715
asg23
(lp2892
g0
(g46
g8
(lp2893
tp2894
Rp2895
(dp2896
g51
g52
(g53
tp2897
Rp2898
sg56
I00
sg57
I0
sbasg58
I140
sg59
g2138
sg62
(dp2899
(I0
I0
tp2900
g2141
sstp2901
Rp2902
ag0
(g10
g2
(dp2903
g12
g0
(g13
g8
(lp2904
g1470
ag1476
ag1504
ag1532
ag1392
atp2905
Rp2906
sg42
(lp2907
g2715
asg23
(lp2908
g0
(g46
g8
(lp2909
tp2910
Rp2911
(dp2912
g51
g52
(g53
tp2913
Rp2914
sg56
I00
sg57
I0
sbasg58
I141
sg59
g2138
sg62
(dp2915
(I0
I0
tp2916
g2141
sstp2917
Rp2918
ag0
(g10
g2
(dp2919
g12
g0
(g13
g8
(lp2920
g1246
ag1420
ag1448
ag1476
ag1610
atp2921
Rp2922
sg42
(lp2923
g2715
asg23
(lp2924
g0
(g46
g8
(lp2925
tp2926
Rp2927
(dp2928
g51
g52
(g53
tp2929
Rp2930
sg56
I00
sg57
I0
sbasg58
I142
sg59
g2138
sg62
(dp2931
(I0
I0
tp2932
g2141
sstp2933
Rp2934
ag0
(g10
g2
(dp2935
g12
g0
(g13
g8
(lp2936
g1246
ag1420
ag1448
ag1928
ag1638
atp2937
Rp2938
sg42
(lp2939
g2715
asg23
(lp2940
g0
(g46
g8
(lp2941
tp2942
Rp2943
(dp2944
g51
g52
(g53
tp2945
Rp2946
sg56
I00
sg57
I0
sbasg58
I143
sg59
g2138
sg62
(dp2947
(I0
I0
tp2948
g2141
sstp2949
Rp2950
ag0
(g10
g2
(dp2951
g12
g0
(g13
g8
(lp2952
g1246
ag1420
ag1448
ag1956
ag1666
atp2953
Rp2954
sg42
(lp2955
g2715
asg23
(lp2956
g0
(g46
g8
(lp2957
tp2958
Rp2959
(dp2960
g51
g52
(g53
tp2961
Rp2962
sg56
I00
sg57
I0
sbasg58
I144
sg59
g2138
sg62
(dp2963
(I0
I0
tp2964
g2141
sstp2965
Rp2966
ag0
(g10
g2
(dp2967
g12
g0
(g13
g8
(lp2968
g1246
ag1420
ag1774
ag1504
ag1638
atp2969
Rp2970
sg42
(lp2971
g2715
asg23
(lp2972
g0
(g46
g8
(lp2973
tp2974
Rp2975
(dp2976
g51
g52
(g53
tp2977
Rp2978
sg56
I00
sg57
I0
sbasg58
I145
sg59
g2138
sg62
(dp2979
(I0
I0
tp2980
g2141
sstp2981
Rp2982
ag0
(g10
g2
(dp2983
g12
g0
(g13
g8
(lp2984
g1246
ag1420
ag1802
ag1532
ag1666
atp2985
Rp2986
sg42
(lp2987
g2715
asg23
(lp2988
g0
(g46
g8
(lp2989
tp2990
Rp2991
(dp2992
g51
g52
(g53
tp2993
Rp2994
sg56
I00
sg57
I0
sbasg58
I146
sg59
g2138
sg62
(dp2995
(I0
I0
tp2996
g2141
sstp2997
Rp2998
ag0
(g10
g2
(dp2999
g12
g0
(g13
g8
(lp3000
g1246
ag1576
ag1476
ag1504
ag1638
atp3001
Rp3002
sg42
(lp3003
g2715
asg23
(lp3004
g0
(g46
g8
(lp3005
tp3006
Rp3007
(dp3008
g51
g52
(g53
tp3009
Rp3010
sg56
I00
sg57
I0
sbasg58
I147
sg59
g2138
sg62
(dp3011
(I0
I0
tp3012
g2141
sstp3013
Rp3014
ag0
(g10
g2
(dp3015
g12
g0
(g13
g8
(lp3016
g1246
ag1604
ag1504
ag1532
ag1666
atp3017
Rp3018
sg42
(lp3019
g2715
asg23
(lp3020
g0
(g46
g8
(lp3021
tp3022
Rp3023
(dp3024
g51
g52
(g53
tp3025
Rp3026
sg56
I00
sg57
I0
sbasg58
I148
sg59
g2138
sg62
(dp3027
(I0
I0
tp3028
g2141
sstp3029
Rp3030
ag0
(g10
g2
(dp3031
g12
g0
(g13
g8
(lp3032
g1274
ag1448
ag1476
ag1504
ag1638
atp3033
Rp3034
sg42
(lp3035
g2715
asg23
(lp3036
g0
(g46
g8
(lp3037
tp3038
Rp3039
(dp3040
g51
g52
(g53
tp3041
Rp3042
sg56
I00
sg57
I0
sbasg58
I149
sg59
g2138
sg62
(dp3043
(I0
I0
tp3044
g2141
sstp3045
Rp3046
ag0
(g10
g2
(dp3047
g12
g0
(g13
g8
(lp3048
g1302
ag1476
ag1504
ag1532
ag1666
atp3049
Rp3050
sg42
(lp3051
g2715
asg23
(lp3052
g0
(g46
g8
(lp3053
tp3054
Rp3055
(dp3056
g51
g52
(g53
tp3057
Rp3058
sg56
I00
sg57
I0
sbasg58
I150
sg59
g2138
sg62
(dp3059
(I0
I0
tp3060
g2141
sstp3061
Rp3062
ag0
(g10
g2
(dp3063
g12
g0
(g13
g8
(lp3064
g1420
ag1448
ag1476
ag1504
ag1808
atp3065
Rp3066
sg42
(lp3067
g2715
asg23
(lp3068
g0
(g46
g8
(lp3069
tp3070
Rp3071
(dp3072
g51
g52
(g53
tp3073
Rp3074
sg56
I00
sg57
I0
sbasg58
I151
sg59
g2138
sg62
(dp3075
(I0
I0
tp3076
g2141
sstp3077
Rp3078
ag0
(g10
g2
(dp3079
g12
g0
(g13
g8
(lp3080
g1420
ag1448
ag1476
ag2038
ag1836
atp3081
Rp3082
sg42
(lp3083
g2715
asg23
(lp3084
g0
(g46
g8
(lp3085
tp3086
Rp3087
(dp3088
g51
g52
(g53
tp3089
Rp3090
sg56
I00
sg57
I0
sbasg58
I152
sg59
g2138
sg62
(dp3091
(I0
I0
tp3092
g2141
sstp3093
Rp3094
ag0
(g10
g2
(dp3095
g12
g0
(g13
g8
(lp3096
g1420
ag1448
ag1928
ag1532
ag1836
atp3097
Rp3098
sg42
(lp3099
g2715
asg23
(lp3100
g0
(g46
g8
(lp3101
tp3102
Rp3103
(dp3104
g51
g52
(g53
tp3105
Rp3106
sg56
I00
sg57
I0
sbasg58
I153
sg59
g2138
sg62
(dp3107
(I0
I0
tp3108
g2141
sstp3109
Rp3110
ag0
(g10
g2
(dp3111
g12
g0
(g13
g8
(lp3112
g1420
ag1774
ag1504
ag1532
ag1836
atp3113
Rp3114
sg42
(lp3115
g2715
asg23
(lp3116
g0
(g46
g8
(lp3117
tp3118
Rp3119
(dp3120
g51
g52
(g53
tp3121
Rp3122
sg56
I00
sg57
I0
sbasg58
I154
sg59
g2138
sg62
(dp3123
(I0
I0
tp3124
g2141
sstp3125
Rp3126
ag0
(g10
g2
(dp3127
g12
g0
(g13
g8
(lp3128
g1576
ag1476
ag1504
ag1532
ag1836
atp3129
Rp3130
sg42
(lp3131
g2715
asg23
(lp3132
g0
(g46
g8
(lp3133
tp3134
Rp3135
(dp3136
g51
g52
(g53
tp3137
Rp3138
sg56
I00
sg57
I0
sbasg58
I155
sg59
g2138
sg62
(dp3139
(I0
I0
tp3140
g2141
sstp3141
Rp3142
ag0
(g10
g2
(dp3143
g12
g0
(g13
g8
(lp3144
g1448
ag1476
ag1504
ag1532
ag1962
atp3145
Rp3146
sg42
(lp3147
g2715
asg23
(lp3148
g0
(g46
g8
(lp3149
tp3150
Rp3151
(dp3152
g51
g52
(g53
tp3153
Rp3154
sg56
I00
sg57
I0
sbasg58
I156
sg59
g2138
sg62
(dp3155
(I0
I0
tp3156
g2141
sstp3157
Rp3158
ag0
(g10
g2
(dp3159
g12
g0
(g13
g8
(lp3160
g1476
ag1504
ag1532
ag2104
ag0
(g15
g2
(dp3161
g17
S'g59'
p3162
sg19
I01
sg20
S'g59'
p3163
sg22
I01
sg23
I1
sg24
g73
sg26
F0.0
sg27
g73
sg29
S'g59'
p3164
sg31
I0
sg32
g75
sg34
I01
sg35
I3
sg36
g3162
sg37
I9059
stp3165
Rp3166
atp3167
Rp3168
sg42
(lp3169
g2715
asg23
(lp3170
g0
(g46
g8
(lp3171
tp3172
Rp3173
(dp3174
g51
g52
(g53
tp3175
Rp3176
sg56
I00
sg57
I0
sbasg58
I157
sg59
g2138
sg62
(dp3177
(I0
I0
tp3178
g2141
sstp3179
Rp3180
ag0
(g10
g2
(dp3181
g12
g0
(g13
g8
(lp3182
g1240
ag1246
ag1420
ag1448
ag1476
ag1336
atp3183
Rp3184
sg42
(lp3185
S'GLUON6'
p3186
asg23
(lp3187
g0
(g46
g8
(lp3188
tp3189
Rp3190
(dp3191
g51
g52
(g53
tp3192
Rp3193
sg56
I00
sg57
I0
sbasg58
I158
sg59
g2138
sg62
(dp3194
(I0
I0
tp3195
g2141
sstp3196
Rp3197
ag0
(g10
g2
(dp3198
g12
g0
(g13
g8
(lp3199
g1240
ag1246
ag1420
ag1448
ag1928
ag1364
atp3200
Rp3201
sg42
(lp3202
g3186
asg23
(lp3203
g0
(g46
g8
(lp3204
tp3205
Rp3206
(dp3207
g51
g52
(g53
tp3208
Rp3209
sg56
I00
sg57
I0
sbasg58
I159
sg59
g2138
sg62
(dp3210
(I0
I0
tp3211
g2141
sstp3212
Rp3213
ag0
(g10
g2
(dp3214
g12
g0
(g13
g8
(lp3215
g1240
ag1246
ag1420
ag1448
ag1956
ag1392
atp3216
Rp3217
sg42
(lp3218
g3186
asg23
(lp3219
g0
(g46
g8
(lp3220
tp3221
Rp3222
(dp3223
g51
g52
(g53
tp3224
Rp3225
sg56
I00
sg57
I0
sbasg58
I160
sg59
g2138
sg62
(dp3226
(I0
I0
tp3227
g2141
sstp3228
Rp3229
ag0
(g10
g2
(dp3230
g12
g0
(g13
g8
(lp3231
g1240
ag1246
ag1420
ag1774
ag1504
ag1364
atp3232
Rp3233
sg42
(lp3234
g3186
asg23
(lp3235
g0
(g46
g8
(lp3236
tp3237
Rp3238
(dp3239
g51
g52
(g53
tp3240
Rp3241
sg56
I00
sg57
I0
sbasg58
I161
sg59
g2138
sg62
(dp3242
(I0
I0
tp3243
g2141
sstp3244
Rp3245
ag0
(g10
g2
(dp3246
g12
g0
(g13
g8
(lp3247
g1240
ag1246
ag1420
ag1802
ag1532
ag1392
atp3248
Rp3249
sg42
(lp3250
g3186
asg23
(lp3251
g0
(g46
g8
(lp3252
tp3253
Rp3254
(dp3255
g51
g52
(g53
tp3256
Rp3257
sg56
I00
sg57
I0
sbasg58
I162
sg59
g2138
sg62
(dp3258
(I0
I0
tp3259
g2141
sstp3260
Rp3261
ag0
(g10
g2
(dp3262
g12
g0
(g13
g8
(lp3263
g1240
ag1246
ag1576
ag1476
ag1504
ag1364
atp3264
Rp3265
sg42
(lp3266
g3186
asg23
(lp3267
g0
(g46
g8
(lp3268
tp3269
Rp3270
(dp3271
g51
g52
(g53
tp3272
Rp3273
sg56
I00
sg57
I0
sbasg58
I163
sg59
g2138
sg62
(dp3274
(I0
I0
tp3275
g2141
sstp3276
Rp3277
ag0
(g10
g2
(dp3278
g12
g0
(g13
g8
(lp3279
g1240
ag1246
ag1604
ag1504
ag1532
ag1392
atp3280
Rp3281
sg42
(lp3282
g3186
asg23
(lp3283
g0
(g46
g8
(lp3284
tp3285
Rp3286
(dp3287
g51
g52
(g53
tp3288
Rp3289
sg56
I00
sg57
I0
sbasg58
I164
sg59
g2138
sg62
(dp3290
(I0
I0
tp3291
g2141
sstp3292
Rp3293
ag0
(g10
g2
(dp3294
g12
g0
(g13
g8
(lp3295
g1240
ag1274
ag1448
ag1476
ag1504
ag1364
atp3296
Rp3297
sg42
(lp3298
g3186
asg23
(lp3299
g0
(g46
g8
(lp3300
tp3301
Rp3302
(dp3303
g51
g52
(g53
tp3304
Rp3305
sg56
I00
sg57
I0
sbasg58
I165
sg59
g2138
sg62
(dp3306
(I0
I0
tp3307
g2141
sstp3308
Rp3309
ag0
(g10
g2
(dp3310
g12
g0
(g13
g8
(lp3311
g1240
ag1302
ag1476
ag1504
ag1532
ag1392
atp3312
Rp3313
sg42
(lp3314
g3186
asg23
(lp3315
g0
(g46
g8
(lp3316
tp3317
Rp3318
(dp3319
g51
g52
(g53
tp3320
Rp3321
sg56
I00
sg57
I0
sbasg58
I166
sg59
g2138
sg62
(dp3322
(I0
I0
tp3323
g2141
sstp3324
Rp3325
ag0
(g10
g2
(dp3326
g12
g0
(g13
g8
(lp3327
g1414
ag1420
ag1448
ag1476
ag1504
ag1364
atp3328
Rp3329
sg42
(lp3330
g3186
asg23
(lp3331
g0
(g46
g8
(lp3332
tp3333
Rp3334
(dp3335
g51
g52
(g53
tp3336
Rp3337
sg56
I00
sg57
I0
sbasg58
I167
sg59
g2138
sg62
(dp3338
(I0
I0
tp3339
g2141
sstp3340
Rp3341
ag0
(g10
g2
(dp3342
g12
g0
(g13
g8
(lp3343
g1442
ag1448
ag1476
ag1504
ag1532
ag1392
atp3344
Rp3345
sg42
(lp3346
g3186
asg23
(lp3347
g0
(g46
g8
(lp3348
tp3349
Rp3350
(dp3351
g51
g52
(g53
tp3352
Rp3353
sg56
I00
sg57
I0
sbasg58
I168
sg59
g2138
sg62
(dp3354
(I0
I0
tp3355
g2141
sstp3356
Rp3357
ag0
(g10
g2
(dp3358
g12
g0
(g13
g8
(lp3359
g1246
ag1420
ag1448
ag1476
ag1504
ag1638
atp3360
Rp3361
sg42
(lp3362
g3186
asg23
(lp3363
g0
(g46
g8
(lp3364
tp3365
Rp3366
(dp3367
g51
g52
(g53
tp3368
Rp3369
sg56
I00
sg57
I0
sbasg58
I169
sg59
g2138
sg62
(dp3370
(I0
I0
tp3371
g2141
sstp3372
Rp3373
ag0
(g10
g2
(dp3374
g12
g0
(g13
g8
(lp3375
g1246
ag1420
ag1448
ag1476
ag2038
ag1666
atp3376
Rp3377
sg42
(lp3378
g3186
asg23
(lp3379
g0
(g46
g8
(lp3380
tp3381
Rp3382
(dp3383
g51
g52
(g53
tp3384
Rp3385
sg56
I00
sg57
I0
sbasg58
I170
sg59
g2138
sg62
(dp3386
(I0
I0
tp3387
g2141
sstp3388
Rp3389
ag0
(g10
g2
(dp3390
g12
g0
(g13
g8
(lp3391
g1246
ag1420
ag1448
ag1928
ag1532
ag1666
atp3392
Rp3393
sg42
(lp3394
g3186
asg23
(lp3395
g0
(g46
g8
(lp3396
tp3397
Rp3398
(dp3399
g51
g52
(g53
tp3400
Rp3401
sg56
I00
sg57
I0
sbasg58
I171
sg59
g2138
sg62
(dp3402
(I0
I0
tp3403
g2141
sstp3404
Rp3405
ag0
(g10
g2
(dp3406
g12
g0
(g13
g8
(lp3407
g1246
ag1420
ag1774
ag1504
ag1532
ag1666
atp3408
Rp3409
sg42
(lp3410
g3186
asg23
(lp3411
g0
(g46
g8
(lp3412
tp3413
Rp3414
(dp3415
g51
g52
(g53
tp3416
Rp3417
sg56
I00
sg57
I0
sbasg58
I172
sg59
g2138
sg62
(dp3418
(I0
I0
tp3419
g2141
sstp3420
Rp3421
ag0
(g10
g2
(dp3422
g12
g0
(g13
g8
(lp3423
g1246
ag1576
ag1476
ag1504
ag1532
ag1666
atp3424
Rp3425
sg42
(lp3426
g3186
asg23
(lp3427
g0
(g46
g8
(lp3428
tp3429
Rp3430
(dp3431
g51
g52
(g53
tp3432
Rp3433
sg56
I00
sg57
I0
sbasg58
I173
sg59
g2138
sg62
(dp3434
(I0
I0
tp3435
g2141
sstp3436
Rp3437
ag0
(g10
g2
(dp3438
g12
g0
(g13
g8
(lp3439
g1274
ag1448
ag1476
ag1504
ag1532
ag1666
atp3440
Rp3441
sg42
(lp3442
g3186
asg23
(lp3443
g0
(g46
g8
(lp3444
tp3445
Rp3446
(dp3447
g51
g52
(g53
tp3448
Rp3449
sg56
I00
sg57
I0
sbasg58
I174
sg59
g2138
sg62
(dp3450
(I0
I0
tp3451
g2141
sstp3452
Rp3453
ag0
(g10
g2
(dp3454
g12
g0
(g13
g8
(lp3455
g1420
ag1448
ag1476
ag1504
ag1532
ag1836
atp3456
Rp3457
sg42
(lp3458
g3186
asg23
(lp3459
g0
(g46
g8
(lp3460
tp3461
Rp3462
(dp3463
g51
g52
(g53
tp3464
Rp3465
sg56
I00
sg57
I0
sbasg58
I175
sg59
g2138
sg62
(dp3466
(I0
I0
tp3467
g2141
sstp3468
Rp3469
ag0
(g10
g2
(dp3470
g12
g0
(g13
g8
(lp3471
g1448
ag1476
ag1504
ag1532
ag2104
ag0
(g15
g2
(dp3472
g17
S'g49'
p3473
sg19
I01
sg20
S'g49'
p3474
sg22
I01
sg23
I1
sg24
g73
sg26
F0.0
sg27
g73
sg29
S'g49'
p3475
sg31
I0
sg32
g75
sg34
I01
sg35
I3
sg36
g3473
sg37
I9049
stp3476
Rp3477
atp3478
Rp3479
sg42
(lp3480
g3186
asg23
(lp3481
g0
(g46
g8
(lp3482
tp3483
Rp3484
(dp3485
g51
g52
(g53
tp3486
Rp3487
sg56
I00
sg57
I0
sbasg58
I176
sg59
g2138
sg62
(dp3488
(I0
I0
tp3489
g2141
sstp3490
Rp3491
ag0
(g10
g2
(dp3492
g12
g0
(g13
g8
(lp3493
g1240
ag1246
ag1420
ag1448
ag1476
ag1504
ag1364
atp3494
Rp3495
sg42
(lp3496
S'GLUON7'
p3497
asg23
(lp3498
g0
(g46
g8
(lp3499
tp3500
Rp3501
(dp3502
g51
g52
(g53
tp3503
Rp3504
sg56
I00
sg57
I0
sbasg58
I177
sg59
g2138
sg62
(dp3505
(I0
I0
tp3506
g2141
sstp3507
Rp3508
ag0
(g10
g2
(dp3509
g12
g0
(g13
g8
(lp3510
g1240
ag1246
ag1420
ag1448
ag1476
ag2038
ag1392
atp3511
Rp3512
sg42
(lp3513
g3497
asg23
(lp3514
g0
(g46
g8
(lp3515
tp3516
Rp3517
(dp3518
g51
g52
(g53
tp3519
Rp3520
sg56
I00
sg57
I0
sbasg58
I178
sg59
g2138
sg62
(dp3521
(I0
I0
tp3522
g2141
sstp3523
Rp3524
ag0
(g10
g2
(dp3525
g12
g0
(g13
g8
(lp3526
g1240
ag1246
ag1420
ag1448
ag1928
ag1532
ag1392
atp3527
Rp3528
sg42
(lp3529
g3497
asg23
(lp3530
g0
(g46
g8
(lp3531
tp3532
Rp3533
(dp3534
g51
g52
(g53
tp3535
Rp3536
sg56
I00
sg57
I0
sbasg58
I179
sg59
g2138
sg62
(dp3537
(I0
I0
tp3538
g2141
sstp3539
Rp3540
ag0
(g10
g2
(dp3541
g12
g0
(g13
g8
(lp3542
g1240
ag1246
ag1420
ag1774
ag1504
ag1532
ag1392
atp3543
Rp3544
sg42
(lp3545
g3497
asg23
(lp3546
g0
(g46
g8
(lp3547
tp3548
Rp3549
(dp3550
g51
g52
(g53
tp3551
Rp3552
sg56
I00
sg57
I0
sbasg58
I180
sg59
g2138
sg62
(dp3553
(I0
I0
tp3554
g2141
sstp3555
Rp3556
ag0
(g10
g2
(dp3557
g12
g0
(g13
g8
(lp3558
g1240
ag1246
ag1576
ag1476
ag1504
ag1532
ag1392
atp3559
Rp3560
sg42
(lp3561
g3497
asg23
(lp3562
g0
(g46
g8
(lp3563
tp3564
Rp3565
(dp3566
g51
g52
(g53
tp3567
Rp3568
sg56
I00
sg57
I0
sbasg58
I181
sg59
g2138
sg62
(dp3569
(I0
I0
tp3570
g2141
sstp3571
Rp3572
ag0
(g10
g2
(dp3573
g12
g0
(g13
g8
(lp3574
g1240
ag1274
ag1448
ag1476
ag1504
ag1532
ag1392
atp3575
Rp3576
sg42
(lp3577
g3497
asg23
(lp3578
g0
(g46
g8
(lp3579
tp3580
Rp3581
(dp3582
g51
g52
(g53
tp3583
Rp3584
sg56
I00
sg57
I0
sbasg58
I182
sg59
g2138
sg62
(dp3585
(I0
I0
tp3586
g2141
sstp3587
Rp3588
ag0
(g10
g2
(dp3589
g12
g0
(g13
g8
(lp3590
g1414
ag1420
ag1448
ag1476
ag1504
ag1532
ag1392
atp3591
Rp3592
sg42
(lp3593
g3497
asg23
(lp3594
g0
(g46
g8
(lp3595
tp3596
Rp3597
(dp3598
g51
g52
(g53
tp3599
Rp3600
sg56
I00
sg57
I0
sbasg58
I183
sg59
g2138
sg62
(dp3601
(I0
I0
tp3602
g2141
sstp3603
Rp3604
ag0
(g10
g2
(dp3605
g12
g0
(g13
g8
(lp3606
g1246
ag1420
ag1448
ag1476
ag1504
ag1532
ag1666
atp3607
Rp3608
sg42
(lp3609
g3497
asg23
(lp3610
g0
(g46
g8
(lp3611
tp3612
Rp3613
(dp3614
g51
g52
(g53
tp3615
Rp3616
sg56
I00
sg57
I0
sbasg58
I184
sg59
g2138
sg62
(dp3617
(I0
I0
tp3618
g2141
sstp3619
Rp3620
ag0
(g10
g2
(dp3621
g12
g0
(g13
g8
(lp3622
g1420
ag1448
ag1476
ag1504
ag1532
ag2104
ag0
(g15
g2
(dp3623
g17
S'g39'
p3624
sg19
I01
sg20
S'g39'
p3625
sg22
I01
sg23
I1
sg24
g73
sg26
F0.0
sg27
g73
sg29
S'g39'
p3626
sg31
I0
sg32
g75
sg34
I01
sg35
I3
sg36
g3624
sg37
I9039
stp3627
Rp3628
atp3629
Rp3630
sg42
(lp3631
g3497
asg23
(lp3632
g0
(g46
g8
(lp3633
tp3634
Rp3635
(dp3636
g51
g52
(g53
tp3637
Rp3638
sg56
I00
sg57
I0
sbasg58
I185
sg59
g2138
sg62
(dp3639
(I0
I0
tp3640
g2141
sstp3641
Rp3642
ag0
(g10
g2
(dp3643
g12
g0
(g13
g8
(lp3644
g1240
ag1246
ag1420
ag1448
ag1476
ag1504
ag1532
ag1392
atp3645
Rp3646
sg42
(lp3647
S'GLUON8'
p3648
asg23
(lp3649
g0
(g46
g8
(lp3650
tp3651
Rp3652
(dp3653
g51
g52
(g53
tp3654
Rp3655
sg56
I00
sg57
I0
sbasg58
I186
sg59
g2138
sg62
(dp3656
(I0
I0
tp3657
g2141
sstp3658
Rp3659
ag0
(g10
g2
(dp3660
g12
g0
(g13
g8
(lp3661
g1246
ag1420
ag1448
ag1476
ag1504
ag1532
ag2104
ag0
(g15
g2
(dp3662
g17
S'g29'
p3663
sg19
I01
sg20
S'g29'
p3664
sg22
I01
sg23
I1
sg24
g73
sg26
F0.0
sg27
g73
sg29
S'g29'
p3665
sg31
I0
sg32
g75
sg34
I01
sg35
I3
sg36
g3663
sg37
I9029
stp3666
Rp3667
atp3668
Rp3669
sg42
(lp3670
g3648
asg23
(lp3671
g0
(g46
g8
(lp3672
tp3673
Rp3674
(dp3675
g51
g52
(g53
tp3676
Rp3677
sg56
I00
sg57
I0
sbasg58
I187
sg59
g2138
sg62
(dp3678
(I0
I0
tp3679
g2141
sstp3680
Rp3681
ag0
(g10
g2
(dp3682
g12
g0
(g13
g8
(lp3683
g1240
ag1246
ag1420
ag1448
ag1476
ag1504
ag1532
ag2104
ag0
(g15
g2
(dp3684
g17
S'g19'
p3685
sg19
I01
sg20
S'g19'
p3686
sg22
I01
sg23
I1
sg24
g73
sg26
F0.0
sg27
g73
sg29
S'g19'
p3687
sg31
I0
sg32
g75
sg34
I01
sg35
I3
sg36
g3685
sg37
I9019
stp3688
Rp3689
atp3690
Rp3691
sg42
(lp3692
S'GLUON9'
p3693
asg23
(lp3694
g0
(g46
g8
(lp3695
tp3696
Rp3697
(dp3698
g51
g52
(g53
tp3699
Rp3700
sg56
I00
sg57
I0
sbasg58
I188
sg59
g2138
sg62
(dp3701
(I0
I0
tp3702
g2141
sstp3703
Rp3704
ag0
(g10
g2
(dp3705
g12
g0
(g13
g8
(lp3706
g1240
ag1246
ag1420
ag1448
ag1476
ag1504
ag1532
ag2104
ag0
(g15
g2
(dp3707
g17
S'ga9'
p3708
sg19
I01
sg20
S'ga9'
p3709
sg22
I01
sg23
I1
sg24
g73
sg26
F0.0
sg27
g73
sg29
S'ga9'
p3710
sg31
I0
sg32
g75
sg34
I01
sg35
I3
sg36
g3708
sg37
I9109
stp3711
Rp3712
ag0
(g15
g2
(dp3713
g17
S'g1a'
p3714
sg19
I01
sg20
S'g1a'
p3715
sg22
I01
sg23
I1
sg24
g73
sg26
F0.0
sg27
g73
sg29
S'g1a'
p3716
sg31
I0
sg32
g75
sg34
I01
sg35
I3
sg36
g3714
sg37
I90110
stp3717
Rp3718
atp3719
Rp3720
sg42
(lp3721
S'GLUON10'
p3722
asg23
(lp3723
g0
(g46
g8
(lp3724
tp3725
Rp3726
(dp3727
g51
g52
(g53
tp3728
Rp3729
sg56
I00
sg57
I0
sbasg58
I189
sg59
g2138
sg62
(dp3730
(I0
I0
tp3731
g2141
sstp3732
Rp3733
ag0
(g10
g2
(dp3734
g12
g0
(g13
g8
(lp3735
g0
(g15
g2
(dp3736
g17
S'u3'
p3737
sg34
I00
sg20
S'u3'
p3738
sg22
I00
sg23
I1
sg24
g73
sg26
F0.66666666666666663
sg27
g73
sg31
I0
sg29
S'u3~'
p3739
sg32
g362
sg19
I01
sg35
I2
sg36
g3737
sg37
I9003
stp3740
Rp3741
ag0
(g15
g2
(dp3742
g17
S'u1'
p3743
sg19
I01
sg20
S'u1'
p3744
sg22
I00
sg23
I1
sg24
g73
sg26
F0.66666666666666663
sg27
g73
sg29
S'u1~'
p3745
sg31
I0
sg32
g362
sg34
I01
sg35
I2
sg36
g3743
sg37
I9001
stp3746
Rp3747
ag1252
atp3748
Rp3749
sg42
(lp3750
g371
asg23
(lp3751
g0
(g46
g8
(lp3752
tp3753
Rp3754
(dp3755
g51
g52
(g53
tp3756
Rp3757
sg56
I00
sg57
I0
sbasg58
I190
sg59
(dp3758
g93
I1
ssg62
(dp3759
(I0
I0
tp3760
S'GG2'
p3761
sstp3762
Rp3763
ag0
(g10
g2
(dp3764
g12
g0
(g13
g8
(lp3765
g0
(g15
g2
(dp3766
g17
g3743
sg34
I00
sg20
g3744
sg22
I00
sg23
I1
sg24
g73
sg26
F0.66666666666666663
sg27
g73
sg31
I0
sg29
g3745
sg32
g362
sg19
I01
sg35
I2
sg36
g3743
sg37
I9001
stp3767
Rp3768
ag0
(g15
g2
(dp3769
g17
g3737
sg19
I01
sg20
g3738
sg22
I00
sg23
I1
sg24
g73
sg26
F0.66666666666666663
sg27
g73
sg29
g3739
sg31
I0
sg32
g362
sg34
I01
sg35
I2
sg36
g3737
sg37
I9003
stp3770
Rp3771
ag1252
atp3772
Rp3773
sg42
(lp3774
g371
asg23
(lp3775
g0
(g46
g8
(lp3776
tp3777
Rp3778
(dp3779
g51
g52
(g53
tp3780
Rp3781
sg56
I00
sg57
I0
sbasg58
I191
sg59
g3758
sg62
(dp3782
(I0
I0
tp3783
g3761
sstp3784
Rp3785
ag0
(g10
g2
(dp3786
g12
g0
(g13
g8
(lp3787
g0
(g15
g2
(dp3788
g17
S'u4'
p3789
sg34
I00
sg20
S'u4'
p3790
sg22
I00
sg23
I1
sg24
g73
sg26
F0.66666666666666663
sg27
g73
sg31
I0
sg29
S'u4~'
p3791
sg32
g362
sg19
I01
sg35
I2
sg36
g3789
sg37
I9004
stp3792
Rp3793
ag3747
ag1280
atp3794
Rp3795
sg42
(lp3796
g371
asg23
(lp3797
g0
(g46
g8
(lp3798
tp3799
Rp3800
(dp3801
g51
g52
(g53
tp3802
Rp3803
sg56
I00
sg57
I0
sbasg58
I192
sg59
g3758
sg62
(dp3804
(I0
I0
tp3805
g3761
sstp3806
Rp3807
ag0
(g10
g2
(dp3808
g12
g0
(g13
g8
(lp3809
g3768
ag0
(g15
g2
(dp3810
g17
g3789
sg19
I01
sg20
g3790
sg22
I00
sg23
I1
sg24
g73
sg26
F0.66666666666666663
sg27
g73
sg29
g3791
sg31
I0
sg32
g362
sg34
I01
sg35
I2
sg36
g3789
sg37
I9004
stp3811
Rp3812
ag1280
atp3813
Rp3814
sg42
(lp3815
g371
asg23
(lp3816
g0
(g46
g8
(lp3817
tp3818
Rp3819
(dp3820
g51
g52
(g53
tp3821
Rp3822
sg56
I00
sg57
I0
sbasg58
I193
sg59
g3758
sg62
(dp3823
(I0
I0
tp3824
g3761
sstp3825
Rp3826
ag0
(g10
g2
(dp3827
g12
g0
(g13
g8
(lp3828
g0
(g15
g2
(dp3829
g17
S'u5'
p3830
sg34
I00
sg20
S'u5'
p3831
sg22
I00
sg23
I1
sg24
g73
sg26
F0.66666666666666663
sg27
g73
sg31
I0
sg29
S'u5~'
p3832
sg32
g362
sg19
I01
sg35
I2
sg36
g3830
sg37
I9005
stp3833
Rp3834
ag3747
ag1308
atp3835
Rp3836
sg42
(lp3837
g371
asg23
(lp3838
g0
(g46
g8
(lp3839
tp3840
Rp3841
(dp3842
g51
g52
(g53
tp3843
Rp3844
sg56
I00
sg57
I0
sbasg58
I194
sg59
g3758
sg62
(dp3845
(I0
I0
tp3846
g3761
sstp3847
Rp3848
ag0
(g10
g2
(dp3849
g12
g0
(g13
g8
(lp3850
g3768
ag0
(g15
g2
(dp3851
g17
g3830
sg19
I01
sg20
g3831
sg22
I00
sg23
I1
sg24
g73
sg26
F0.66666666666666663
sg27
g73
sg29
g3832
sg31
I0
sg32
g362
sg34
I01
sg35
I2
sg36
g3830
sg37
I9005
stp3852
Rp3853
ag1308
atp3854
Rp3855
sg42
(lp3856
g371
asg23
(lp3857
g0
(g46
g8
(lp3858
tp3859
Rp3860
(dp3861
g51
g52
(g53
tp3862
Rp3863
sg56
I00
sg57
I0
sbasg58
I195
sg59
g3758
sg62
(dp3864
(I0
I0
tp3865
g3761
sstp3866
Rp3867
ag0
(g10
g2
(dp3868
g12
g0
(g13
g8
(lp3869
g0
(g15
g2
(dp3870
g17
S'u6'
p3871
sg34
I00
sg20
S'u6'
p3872
sg22
I00
sg23
I1
sg24
g73
sg26
F0.66666666666666663
sg27
g73
sg31
I0
sg29
S'u6~'
p3873
sg32
g362
sg19
I01
sg35
I2
sg36
g3871
sg37
I9006
stp3874
Rp3875
ag3747
ag1336
atp3876
Rp3877
sg42
(lp3878
g371
asg23
(lp3879
g0
(g46
g8
(lp3880
tp3881
Rp3882
(dp3883
g51
g52
(g53
tp3884
Rp3885
sg56
I00
sg57
I0
sbasg58
I196
sg59
g3758
sg62
(dp3886
(I0
I0
tp3887
g3761
sstp3888
Rp3889
ag0
(g10
g2
(dp3890
g12
g0
(g13
g8
(lp3891
g3768
ag0
(g15
g2
(dp3892
g17
g3871
sg19
I01
sg20
g3872
sg22
I00
sg23
I1
sg24
g73
sg26
F0.66666666666666663
sg27
g73
sg29
g3873
sg31
I0
sg32
g362
sg34
I01
sg35
I2
sg36
g3871
sg37
I9006
stp3893
Rp3894
ag1336
atp3895
Rp3896
sg42
(lp3897
g371
asg23
(lp3898
g0
(g46
g8
(lp3899
tp3900
Rp3901
(dp3902
g51
g52
(g53
tp3903
Rp3904
sg56
I00
sg57
I0
sbasg58
I197
sg59
g3758
sg62
(dp3905
(I0
I0
tp3906
g3761
sstp3907
Rp3908
ag0
(g10
g2
(dp3909
g12
g0
(g13
g8
(lp3910
g0
(g15
g2
(dp3911
g17
S'u7'
p3912
sg34
I00
sg20
S'u7'
p3913
sg22
I00
sg23
I1
sg24
g73
sg26
F0.66666666666666663
sg27
g73
sg31
I0
sg29
S'u7~'
p3914
sg32
g362
sg19
I01
sg35
I2
sg36
g3912
sg37
I9007
stp3915
Rp3916
ag3747
ag1364
atp3917
Rp3918
sg42
(lp3919
g371
asg23
(lp3920
g0
(g46
g8
(lp3921
tp3922
Rp3923
(dp3924
g51
g52
(g53
tp3925
Rp3926
sg56
I00
sg57
I0
sbasg58
I198
sg59
g3758
sg62
(dp3927
(I0
I0
tp3928
g3761
sstp3929
Rp3930
ag0
(g10
g2
(dp3931
g12
g0
(g13
g8
(lp3932
g3768
ag0
(g15
g2
(dp3933
g17
g3912
sg19
I01
sg20
g3913
sg22
I00
sg23
I1
sg24
g73
sg26
F0.66666666666666663
sg27
g73
sg29
g3914
sg31
I0
sg32
g362
sg34
I01
sg35
I2
sg36
g3912
sg37
I9007
stp3934
Rp3935
ag1364
atp3936
Rp3937
sg42
(lp3938
g371
asg23
(lp3939
g0
(g46
g8
(lp3940
tp3941
Rp3942
(dp3943
g51
g52
(g53
tp3944
Rp3945
sg56
I00
sg57
I0
sbasg58
I199
sg59
g3758
sg62
(dp3946
(I0
I0
tp3947
g3761
sstp3948
Rp3949
ag0
(g10
g2
(dp3950
g12
g0
(g13
g8
(lp3951
g0
(g15
g2
(dp3952
g17
S'u8'
p3953
sg34
I00
sg20
S'u8'
p3954
sg22
I00
sg23
I1
sg24
g73
sg26
F0.66666666666666663
sg27
g73
sg31
I0
sg29
S'u8~'
p3955
sg32
g362
sg19
I01
sg35
I2
sg36
g3953
sg37
I9008
stp3956
Rp3957
ag3747
ag1392
atp3958
Rp3959
sg42
(lp3960
g371
asg23
(lp3961
g0
(g46
g8
(lp3962
tp3963
Rp3964
(dp3965
g51
g52
(g53
tp3966
Rp3967
sg56
I00
sg57
I0
sbasg58
I200
sg59
g3758
sg62
(dp3968
(I0
I0
tp3969
g3761
sstp3970
Rp3971
ag0
(g10
g2
(dp3972
g12
g0
(g13
g8
(lp3973
g3768
ag0
(g15
g2
(dp3974
g17
g3953
sg19
I01
sg20
g3954
sg22
I00
sg23
I1
sg24
g73
sg26
F0.66666666666666663
sg27
g73
sg29
g3955
sg31
I0
sg32
g362
sg34
I01
sg35
I2
sg36
g3953
sg37
I9008
stp3975
Rp3976
ag1392
atp3977
Rp3978
sg42
(lp3979
g371
asg23
(lp3980
g0
(g46
g8
(lp3981
tp3982
Rp3983
(dp3984
g51
g52
(g53
tp3985
Rp3986
sg56
I00
sg57
I0
sbasg58
I201
sg59
g3758
sg62
(dp3987
(I0
I0
tp3988
g3761
sstp3989
Rp3990
ag0
(g10
g2
(dp3991
g12
g0
(g13
g8
(lp3992
g0
(g15
g2
(dp3993
g17
S'u9'
p3994
sg34
I00
sg20
S'u9'
p3995
sg22
I00
sg23
I1
sg24
g73
sg26
F0.66666666666666663
sg27
g73
sg31
I0
sg29
S'u9~'
p3996
sg32
g362
sg19
I01
sg35
I2
sg36
g3994
sg37
I9009
stp3997
Rp3998
ag3747
ag3689
atp3999
Rp4000
sg42
(lp4001
g371
asg23
(lp4002
g0
(g46
g8
(lp4003
tp4004
Rp4005
(dp4006
g51
g52
(g53
tp4007
Rp4008
sg56
I00
sg57
I0
sbasg58
I202
sg59
g3758
sg62
(dp4009
(I0
I0
tp4010
g3761
sstp4011
Rp4012
ag0
(g10
g2
(dp4013
g12
g0
(g13
g8
(lp4014
g3768
ag0
(g15
g2
(dp4015
g17
g3994
sg19
I01
sg20
g3995
sg22
I00
sg23
I1
sg24
g73
sg26
F0.66666666666666663
sg27
g73
sg29
g3996
sg31
I0
sg32
g362
sg34
I01
sg35
I2
sg36
g3994
sg37
I9009
stp4016
Rp4017
ag3689
atp4018
Rp4019
sg42
(lp4020
g371
asg23
(lp4021
g0
(g46
g8
(lp4022
tp4023
Rp4024
(dp4025
g51
g52
(g53
tp4026
Rp4027
sg56
I00
sg57
I0
sbasg58
I203
sg59
g3758
sg62
(dp4028
(I0
I0
tp4029
g3761
sstp4030
Rp4031
ag0
(g10
g2
(dp4032
g12
g0
(g13
g8
(lp4033
g3768
ag0
(g15
g2
(dp4034
g17
S'u2'
p4035
sg19
I01
sg20
S'u2'
p4036
sg22
I00
sg23
I1
sg24
g73
sg26
F0.66666666666666663
sg27
g73
sg29
S'u2~'
p4037
sg31
I0
sg32
g362
sg34
I01
sg35
I2
sg36
g4035
sg37
I9002
stp4038
Rp4039
ag1240
atp4040
Rp4041
sg42
(lp4042
g371
asg23
(lp4043
g0
(g46
g8
(lp4044
tp4045
Rp4046
(dp4047
g51
g52
(g53
tp4048
Rp4049
sg56
I00
sg57
I0
sbasg58
I204
sg59
g3758
sg62
(dp4050
(I0
I0
tp4051
g3761
sstp4052
Rp4053
ag0
(g10
g2
(dp4054
g12
g0
(g13
g8
(lp4055
g0
(g15
g2
(dp4056
g17
g4035
sg34
I00
sg20
g4036
sg22
I00
sg23
I1
sg24
g73
sg26
F0.66666666666666663
sg27
g73
sg31
I0
sg29
g4037
sg32
g362
sg19
I01
sg35
I2
sg36
g4035
sg37
I9002
stp4057
Rp4058
ag3747
ag1240
atp4059
Rp4060
sg42
(lp4061
g371
asg23
(lp4062
g0
(g46
g8
(lp4063
tp4064
Rp4065
(dp4066
g51
g52
(g53
tp4067
Rp4068
sg56
I00
sg57
I0
sbasg58
I205
sg59
g3758
sg62
(dp4069
(I0
I0
tp4070
g3761
sstp4071
Rp4072
ag0
(g10
g2
(dp4073
g12
g0
(g13
g8
(lp4074
g3793
ag4039
ag1554
atp4075
Rp4076
sg42
(lp4077
g371
asg23
(lp4078
g0
(g46
g8
(lp4079
tp4080
Rp4081
(dp4082
g51
g52
(g53
tp4083
Rp4084
sg56
I00
sg57
I0
sbasg58
I206
sg59
g3758
sg62
(dp4085
(I0
I0
tp4086
g3761
sstp4087
Rp4088
ag0
(g10
g2
(dp4089
g12
g0
(g13
g8
(lp4090
g4058
ag3812
ag1554
atp4091
Rp4092
sg42
(lp4093
g371
asg23
(lp4094
g0
(g46
g8
(lp4095
tp4096
Rp4097
(dp4098
g51
g52
(g53
tp4099
Rp4100
sg56
I00
sg57
I0
sbasg58
I207
sg59
g3758
sg62
(dp4101
(I0
I0
tp4102
g3761
sstp4103
Rp4104
ag0
(g10
g2
(dp4105
g12
g0
(g13
g8
(lp4106
g3834
ag4039
ag1582
atp4107
Rp4108
sg42
(lp4109
g371
asg23
(lp4110
g0
(g46
g8
(lp4111
tp4112
Rp4113
(dp4114
g51
g52
(g53
tp4115
Rp4116
sg56
I00
sg57
I0
sbasg58
I208
sg59
g3758
sg62
(dp4117
(I0
I0
tp4118
g3761
sstp4119
Rp4120
ag0
(g10
g2
(dp4121
g12
g0
(g13
g8
(lp4122
g4058
ag3853
ag1582
atp4123
Rp4124
sg42
(lp4125
g371
asg23
(lp4126
g0
(g46
g8
(lp4127
tp4128
Rp4129
(dp4130
g51
g52
(g53
tp4131
Rp4132
sg56
I00
sg57
I0
sbasg58
I209
sg59
g3758
sg62
(dp4133
(I0
I0
tp4134
g3761
sstp4135
Rp4136
ag0
(g10
g2
(dp4137
g12
g0
(g13
g8
(lp4138
g3875
ag4039
ag1610
atp4139
Rp4140
sg42
(lp4141
g371
asg23
(lp4142
g0
(g46
g8
(lp4143
tp4144
Rp4145
(dp4146
g51
g52
(g53
tp4147
Rp4148
sg56
I00
sg57
I0
sbasg58
I210
sg59
g3758
sg62
(dp4149
(I0
I0
tp4150
g3761
sstp4151
Rp4152
ag0
(g10
g2
(dp4153
g12
g0
(g13
g8
(lp4154
g4058
ag3894
ag1610
atp4155
Rp4156
sg42
(lp4157
g371
asg23
(lp4158
g0
(g46
g8
(lp4159
tp4160
Rp4161
(dp4162
g51
g52
(g53
tp4163
Rp4164
sg56
I00
sg57
I0
sbasg58
I211
sg59
g3758
sg62
(dp4165
(I0
I0
tp4166
g3761
sstp4167
Rp4168
ag0
(g10
g2
(dp4169
g12
g0
(g13
g8
(lp4170
g3916
ag4039
ag1638
atp4171
Rp4172
sg42
(lp4173
g371
asg23
(lp4174
g0
(g46
g8
(lp4175
tp4176
Rp4177
(dp4178
g51
g52
(g53
tp4179
Rp4180
sg56
I00
sg57
I0
sbasg58
I212
sg59
g3758
sg62
(dp4181
(I0
I0
tp4182
g3761
sstp4183
Rp4184
ag0
(g10
g2
(dp4185
g12
g0
(g13
g8
(lp4186
g4058
ag3935
ag1638
atp4187
Rp4188
sg42
(lp4189
g371
asg23
(lp4190
g0
(g46
g8
(lp4191
tp4192
Rp4193
(dp4194
g51
g52
(g53
tp4195
Rp4196
sg56
I00
sg57
I0
sbasg58
I213
sg59
g3758
sg62
(dp4197
(I0
I0
tp4198
g3761
sstp4199
Rp4200
ag0
(g10
g2
(dp4201
g12
g0
(g13
g8
(lp4202
g3957
ag4039
ag1666
atp4203
Rp4204
sg42
(lp4205
g371
asg23
(lp4206
g0
(g46
g8
(lp4207
tp4208
Rp4209
(dp4210
g51
g52
(g53
tp4211
Rp4212
sg56
I00
sg57
I0
sbasg58
I214
sg59
g3758
sg62
(dp4213
(I0
I0
tp4214
g3761
sstp4215
Rp4216
ag0
(g10
g2
(dp4217
g12
g0
(g13
g8
(lp4218
g4058
ag3976
ag1666
atp4219
Rp4220
sg42
(lp4221
g371
asg23
(lp4222
g0
(g46
g8
(lp4223
tp4224
Rp4225
(dp4226
g51
g52
(g53
tp4227
Rp4228
sg56
I00
sg57
I0
sbasg58
I215
sg59
g3758
sg62
(dp4229
(I0
I0
tp4230
g3761
sstp4231
Rp4232
ag0
(g10
g2
(dp4233
g12
g0
(g13
g8
(lp4234
g3998
ag4039
ag3667
atp4235
Rp4236
sg42
(lp4237
g371
asg23
(lp4238
g0
(g46
g8
(lp4239
tp4240
Rp4241
(dp4242
g51
g52
(g53
tp4243
Rp4244
sg56
I00
sg57
I0
sbasg58
I216
sg59
g3758
sg62
(dp4245
(I0
I0
tp4246
g3761
sstp4247
Rp4248
ag0
(g10
g2
(dp4249
g12
g0
(g13
g8
(lp4250
g4058
ag4017
ag3667
atp4251
Rp4252
sg42
(lp4253
g371
asg23
(lp4254
g0
(g46
g8
(lp4255
tp4256
Rp4257
(dp4258
g51
g52
(g53
tp4259
Rp4260
sg56
I00
sg57
I0
sbasg58
I217
sg59
g3758
sg62
(dp4261
(I0
I0
tp4262
g3761
sstp4263
Rp4264
ag0
(g10
g2
(dp4265
g12
g0
(g13
g8
(lp4266
g3741
ag3747
ag1414
atp4267
Rp4268
sg42
(lp4269
g371
asg23
(lp4270
g0
(g46
g8
(lp4271
tp4272
Rp4273
(dp4274
g51
g52
(g53
tp4275
Rp4276
sg56
I00
sg57
I0
sbasg58
I218
sg59
g3758
sg62
(dp4277
(I0
I0
tp4278
g3761
sstp4279
Rp4280
ag0
(g10
g2
(dp4281
g12
g0
(g13
g8
(lp4282
g4058
ag3771
ag1246
atp4283
Rp4284
sg42
(lp4285
g371
asg23
(lp4286
g0
(g46
g8
(lp4287
tp4288
Rp4289
(dp4290
g51
g52
(g53
tp4291
Rp4292
sg56
I00
sg57
I0
sbasg58
I219
sg59
g3758
sg62
(dp4293
(I0
I0
tp4294
g3761
sstp4295
Rp4296
ag0
(g10
g2
(dp4297
g12
g0
(g13
g8
(lp4298
g3741
ag4039
ag1246
atp4299
Rp4300
sg42
(lp4301
g371
asg23
(lp4302
g0
(g46
g8
(lp4303
tp4304
Rp4305
(dp4306
g51
g52
(g53
tp4307
Rp4308
sg56
I00
sg57
I0
sbasg58
I220
sg59
g3758
sg62
(dp4309
(I0
I0
tp4310
g3761
sstp4311
Rp4312
ag0
(g10
g2
(dp4313
g12
g0
(g13
g8
(lp4314
g3834
ag3771
ag1752
atp4315
Rp4316
sg42
(lp4317
g371
asg23
(lp4318
g0
(g46
g8
(lp4319
tp4320
Rp4321
(dp4322
g51
g52
(g53
tp4323
Rp4324
sg56
I00
sg57
I0
sbasg58
I221
sg59
g3758
sg62
(dp4325
(I0
I0
tp4326
g3761
sstp4327
Rp4328
ag0
(g10
g2
(dp4329
g12
g0
(g13
g8
(lp4330
g3741
ag3853
ag1752
atp4331
Rp4332
sg42
(lp4333
g371
asg23
(lp4334
g0
(g46
g8
(lp4335
tp4336
Rp4337
(dp4338
g51
g52
(g53
tp4339
Rp4340
sg56
I00
sg57
I0
sbasg58
I222
sg59
g3758
sg62
(dp4341
(I0
I0
tp4342
g3761
sstp4343
Rp4344
ag0
(g10
g2
(dp4345
g12
g0
(g13
g8
(lp4346
g3875
ag3771
ag1780
atp4347
Rp4348
sg42
(lp4349
g371
asg23
(lp4350
g0
(g46
g8
(lp4351
tp4352
Rp4353
(dp4354
g51
g52
(g53
tp4355
Rp4356
sg56
I00
sg57
I0
sbasg58
I223
sg59
g3758
sg62
(dp4357
(I0
I0
tp4358
g3761
sstp4359
Rp4360
ag0
(g10
g2
(dp4361
g12
g0
(g13
g8
(lp4362
g3741
ag3894
ag1780
atp4363
Rp4364
sg42
(lp4365
g371
asg23
(lp4366
g0
(g46
g8
(lp4367
tp4368
Rp4369
(dp4370
g51
g52
(g53
tp4371
Rp4372
sg56
I00
sg57
I0
sbasg58
I224
sg59
g3758
sg62
(dp4373
(I0
I0
tp4374
g3761
sstp4375
Rp4376
ag0
(g10
g2
(dp4377
g12
g0
(g13
g8
(lp4378
g3916
ag3771
ag1808
atp4379
Rp4380
sg42
(lp4381
g371
asg23
(lp4382
g0
(g46
g8
(lp4383
tp4384
Rp4385
(dp4386
g51
g52
(g53
tp4387
Rp4388
sg56
I00
sg57
I0
sbasg58
I225
sg59
g3758
sg62
(dp4389
(I0
I0
tp4390
g3761
sstp4391
Rp4392
ag0
(g10
g2
(dp4393
g12
g0
(g13
g8
(lp4394
g3741
ag3935
ag1808
atp4395
Rp4396
sg42
(lp4397
g371
asg23
(lp4398
g0
(g46
g8
(lp4399
tp4400
Rp4401
(dp4402
g51
g52
(g53
tp4403
Rp4404
sg56
I00
sg57
I0
sbasg58
I226
sg59
g3758
sg62
(dp4405
(I0
I0
tp4406
g3761
sstp4407
Rp4408
ag0
(g10
g2
(dp4409
g12
g0
(g13
g8
(lp4410
g3957
ag3771
ag1836
atp4411
Rp4412
sg42
(lp4413
g371
asg23
(lp4414
g0
(g46
g8
(lp4415
tp4416
Rp4417
(dp4418
g51
g52
(g53
tp4419
Rp4420
sg56
I00
sg57
I0
sbasg58
I227
sg59
g3758
sg62
(dp4421
(I0
I0
tp4422
g3761
sstp4423
Rp4424
ag0
(g10
g2
(dp4425
g12
g0
(g13
g8
(lp4426
g3741
ag3976
ag1836
atp4427
Rp4428
sg42
(lp4429
g371
asg23
(lp4430
g0
(g46
g8
(lp4431
tp4432
Rp4433
(dp4434
g51
g52
(g53
tp4435
Rp4436
sg56
I00
sg57
I0
sbasg58
I228
sg59
g3758
sg62
(dp4437
(I0
I0
tp4438
g3761
sstp4439
Rp4440
ag0
(g10
g2
(dp4441
g12
g0
(g13
g8
(lp4442
g3998
ag3771
ag3628
atp4443
Rp4444
sg42
(lp4445
g371
asg23
(lp4446
g0
(g46
g8
(lp4447
tp4448
Rp4449
(dp4450
g51
g52
(g53
tp4451
Rp4452
sg56
I00
sg57
I0
sbasg58
I229
sg59
g3758
sg62
(dp4453
(I0
I0
tp4454
g3761
sstp4455
Rp4456
ag0
(g10
g2
(dp4457
g12
g0
(g13
g8
(lp4458
g3741
ag4017
ag3628
atp4459
Rp4460
sg42
(lp4461
g371
asg23
(lp4462
g0
(g46
g8
(lp4463
tp4464
Rp4465
(dp4466
g51
g52
(g53
tp4467
Rp4468
sg56
I00
sg57
I0
sbasg58
I230
sg59
g3758
sg62
(dp4469
(I0
I0
tp4470
g3761
sstp4471
Rp4472
ag0
(g10
g2
(dp4473
g12
g0
(g13
g8
(lp4474
g3793
ag3747
ag1442
atp4475
Rp4476
sg42
(lp4477
g371
asg23
(lp4478
g0
(g46
g8
(lp4479
tp4480
Rp4481
(dp4482
g51
g52
(g53
tp4483
Rp4484
sg56
I00
sg57
I0
sbasg58
I231
sg59
g3758
sg62
(dp4485
(I0
I0
tp4486
g3761
sstp4487
Rp4488
ag0
(g10
g2
(dp4489
g12
g0
(g13
g8
(lp4490
g3793
ag4039
ag1274
atp4491
Rp4492
sg42
(lp4493
g371
asg23
(lp4494
g0
(g46
g8
(lp4495
tp4496
Rp4497
(dp4498
g51
g52
(g53
tp4499
Rp4500
sg56
I00
sg57
I0
sbasg58
I232
sg59
g3758
sg62
(dp4501
(I0
I0
tp4502
g3761
sstp4503
Rp4504
ag0
(g10
g2
(dp4505
g12
g0
(g13
g8
(lp4506
g3741
ag3812
ag1420
atp4507
Rp4508
sg42
(lp4509
g371
asg23
(lp4510
g0
(g46
g8
(lp4511
tp4512
Rp4513
(dp4514
g51
g52
(g53
tp4515
Rp4516
sg56
I00
sg57
I0
sbasg58
I233
sg59
g3758
sg62
(dp4517
(I0
I0
tp4518
g3761
sstp4519
Rp4520
ag0
(g10
g2
(dp4521
g12
g0
(g13
g8
(lp4522
g3793
ag3771
ag1420
atp4523
Rp4524
sg42
(lp4525
g371
asg23
(lp4526
g0
(g46
g8
(lp4527
tp4528
Rp4529
(dp4530
g51
g52
(g53
tp4531
Rp4532
sg56
I00
sg57
I0
sbasg58
I234
sg59
g3758
sg62
(dp4533
(I0
I0
tp4534
g3761
sstp4535
Rp4536
ag0
(g10
g2
(dp4537
g12
g0
(g13
g8
(lp4538
g3875
ag3812
ag1906
atp4539
Rp4540
sg42
(lp4541
g371
asg23
(lp4542
g0
(g46
g8
(lp4543
tp4544
Rp4545
(dp4546
g51
g52
(g53
tp4547
Rp4548
sg56
I00
sg57
I0
sbasg58
I235
sg59
g3758
sg62
(dp4549
(I0
I0
tp4550
g3761
sstp4551
Rp4552
ag0
(g10
g2
(dp4553
g12
g0
(g13
g8
(lp4554
g3793
ag3894
ag1906
atp4555
Rp4556
sg42
(lp4557
g371
asg23
(lp4558
g0
(g46
g8
(lp4559
tp4560
Rp4561
(dp4562
g51
g52
(g53
tp4563
Rp4564
sg56
I00
sg57
I0
sbasg58
I236
sg59
g3758
sg62
(dp4565
(I0
I0
tp4566
g3761
sstp4567
Rp4568
ag0
(g10
g2
(dp4569
g12
g0
(g13
g8
(lp4570
g3916
ag3812
ag1934
atp4571
Rp4572
sg42
(lp4573
g371
asg23
(lp4574
g0
(g46
g8
(lp4575
tp4576
Rp4577
(dp4578
g51
g52
(g53
tp4579
Rp4580
sg56
I00
sg57
I0
sbasg58
I237
sg59
g3758
sg62
(dp4581
(I0
I0
tp4582
g3761
sstp4583
Rp4584
ag0
(g10
g2
(dp4585
g12
g0
(g13
g8
(lp4586
g3793
ag3935
ag1934
atp4587
Rp4588
sg42
(lp4589
g371
asg23
(lp4590
g0
(g46
g8
(lp4591
tp4592
Rp4593
(dp4594
g51
g52
(g53
tp4595
Rp4596
sg56
I00
sg57
I0
sbasg58
I238
sg59
g3758
sg62
(dp4597
(I0
I0
tp4598
g3761
sstp4599
Rp4600
ag0
(g10
g2
(dp4601
g12
g0
(g13
g8
(lp4602
g3957
ag3812
ag1962
atp4603
Rp4604
sg42
(lp4605
g371
asg23
(lp4606
g0
(g46
g8
(lp4607
tp4608
Rp4609
(dp4610
g51
g52
(g53
tp4611
Rp4612
sg56
I00
sg57
I0
sbasg58
I239
sg59
g3758
sg62
(dp4613
(I0
I0
tp4614
g3761
sstp4615
Rp4616
ag0
(g10
g2
(dp4617
g12
g0
(g13
g8
(lp4618
g3793
ag3976
ag1962
atp4619
Rp4620
sg42
(lp4621
g371
asg23
(lp4622
g0
(g46
g8
(lp4623
tp4624
Rp4625
(dp4626
g51
g52
(g53
tp4627
Rp4628
sg56
I00
sg57
I0
sbasg58
I240
sg59
g3758
sg62
(dp4629
(I0
I0
tp4630
g3761
sstp4631
Rp4632
ag0
(g10
g2
(dp4633
g12
g0
(g13
g8
(lp4634
g3998
ag3812
ag3477
atp4635
Rp4636
sg42
(lp4637
g371
asg23
(lp4638
g0
(g46
g8
(lp4639
tp4640
Rp4641
(dp4642
g51
g52
(g53
tp4643
Rp4644
sg56
I00
sg57
I0
sbasg58
I241
sg59
g3758
sg62
(dp4645
(I0
I0
tp4646
g3761
sstp4647
Rp4648
ag0
(g10
g2
(dp4649
g12
g0
(g13
g8
(lp4650
g3793
ag4017
ag3477
atp4651
Rp4652
sg42
(lp4653
g371
asg23
(lp4654
g0
(g46
g8
(lp4655
tp4656
Rp4657
(dp4658
g51
g52
(g53
tp4659
Rp4660
sg56
I00
sg57
I0
sbasg58
I242
sg59
g3758
sg62
(dp4661
(I0
I0
tp4662
g3761
sstp4663
Rp4664
ag0
(g10
g2
(dp4665
g12
g0
(g13
g8
(lp4666
g3834
ag3747
ag1470
atp4667
Rp4668
sg42
(lp4669
g371
asg23
(lp4670
g0
(g46
g8
(lp4671
tp4672
Rp4673
(dp4674
g51
g52
(g53
tp4675
Rp4676
sg56
I00
sg57
I0
sbasg58
I243
sg59
g3758
sg62
(dp4677
(I0
I0
tp4678
g3761
sstp4679
Rp4680
ag0
(g10
g2
(dp4681
g12
g0
(g13
g8
(lp4682
g3834
ag4039
ag1302
atp4683
Rp4684
sg42
(lp4685
g371
asg23
(lp4686
g0
(g46
g8
(lp4687
tp4688
Rp4689
(dp4690
g51
g52
(g53
tp4691
Rp4692
sg56
I00
sg57
I0
sbasg58
I244
sg59
g3758
sg62
(dp4693
(I0
I0
tp4694
g3761
sstp4695
Rp4696
ag0
(g10
g2
(dp4697
g12
g0
(g13
g8
(lp4698
g3834
ag3771
ag1576
atp4699
Rp4700
sg42
(lp4701
g371
asg23
(lp4702
g0
(g46
g8
(lp4703
tp4704
Rp4705
(dp4706
g51
g52
(g53
tp4707
Rp4708
sg56
I00
sg57
I0
sbasg58
I245
sg59
g3758
sg62
(dp4709
(I0
I0
tp4710
g3761
sstp4711
Rp4712
ag0
(g10
g2
(dp4713
g12
g0
(g13
g8
(lp4714
g3793
ag3853
ag1448
atp4715
Rp4716
sg42
(lp4717
g371
asg23
(lp4718
g0
(g46
g8
(lp4719
tp4720
Rp4721
(dp4722
g51
g52
(g53
tp4723
Rp4724
sg56
I00
sg57
I0
sbasg58
I246
sg59
g3758
sg62
(dp4725
(I0
I0
tp4726
g3761
sstp4727
Rp4728
ag0
(g10
g2
(dp4729
g12
g0
(g13
g8
(lp4730
g3834
ag3812
ag1448
atp4731
Rp4732
sg42
(lp4733
g371
asg23
(lp4734
g0
(g46
g8
(lp4735
tp4736
Rp4737
(dp4738
g51
g52
(g53
tp4739
Rp4740
sg56
I00
sg57
I0
sbasg58
I247
sg59
g3758
sg62
(dp4741
(I0
I0
tp4742
g3761
sstp4743
Rp4744
ag0
(g10
g2
(dp4745
g12
g0
(g13
g8
(lp4746
g3916
ag3853
ag2016
atp4747
Rp4748
sg42
(lp4749
g371
asg23
(lp4750
g0
(g46
g8
(lp4751
tp4752
Rp4753
(dp4754
g51
g52
(g53
tp4755
Rp4756
sg56
I00
sg57
I0
sbasg58
I248
sg59
g3758
sg62
(dp4757
(I0
I0
tp4758
g3761
sstp4759
Rp4760
ag0
(g10
g2
(dp4761
g12
g0
(g13
g8
(lp4762
g3834
ag3935
ag2016
atp4763
Rp4764
sg42
(lp4765
g371
asg23
(lp4766
g0
(g46
g8
(lp4767
tp4768
Rp4769
(dp4770
g51
g52
(g53
tp4771
Rp4772
sg56
I00
sg57
I0
sbasg58
I249
sg59
g3758
sg62
(dp4773
(I0
I0
tp4774
g3761
sstp4775
Rp4776
ag0
(g10
g2
(dp4777
g12
g0
(g13
g8
(lp4778
g3957
ag3853
ag2044
atp4779
Rp4780
sg42
(lp4781
g371
asg23
(lp4782
g0
(g46
g8
(lp4783
tp4784
Rp4785
(dp4786
g51
g52
(g53
tp4787
Rp4788
sg56
I00
sg57
I0
sbasg58
I250
sg59
g3758
sg62
(dp4789
(I0
I0
tp4790
g3761
sstp4791
Rp4792
ag0
(g10
g2
(dp4793
g12
g0
(g13
g8
(lp4794
g3834
ag3976
ag2044
atp4795
Rp4796
sg42
(lp4797
g371
asg23
(lp4798
g0
(g46
g8
(lp4799
tp4800
Rp4801
(dp4802
g51
g52
(g53
tp4803
Rp4804
sg56
I00
sg57
I0
sbasg58
I251
sg59
g3758
sg62
(dp4805
(I0
I0
tp4806
g3761
sstp4807
Rp4808
ag0
(g10
g2
(dp4809
g12
g0
(g13
g8
(lp4810
g3998
ag3853
ag3166
atp4811
Rp4812
sg42
(lp4813
g371
asg23
(lp4814
g0
(g46
g8
(lp4815
tp4816
Rp4817
(dp4818
g51
g52
(g53
tp4819
Rp4820
sg56
I00
sg57
I0
sbasg58
I252
sg59
g3758
sg62
(dp4821
(I0
I0
tp4822
g3761
sstp4823
Rp4824
ag0
(g10
g2
(dp4825
g12
g0
(g13
g8
(lp4826
g3834
ag4017
ag3166
atp4827
Rp4828
sg42
(lp4829
g371
asg23
(lp4830
g0
(g46
g8
(lp4831
tp4832
Rp4833
(dp4834
g51
g52
(g53
tp4835
Rp4836
sg56
I00
sg57
I0
sbasg58
I253
sg59
g3758
sg62
(dp4837
(I0
I0
tp4838
g3761
sstp4839
Rp4840
ag0
(g10
g2
(dp4841
g12
g0
(g13
g8
(lp4842
g3875
ag3747
ag1498
atp4843
Rp4844
sg42
(lp4845
g371
asg23
(lp4846
g0
(g46
g8
(lp4847
tp4848
Rp4849
(dp4850
g51
g52
(g53
tp4851
Rp4852
sg56
I00
sg57
I0
sbasg58
I254
sg59
g3758
sg62
(dp4853
(I0
I0
tp4854
g3761
sstp4855
Rp4856
ag0
(g10
g2
(dp4857
g12
g0
(g13
g8
(lp4858
g3875
ag4039
ag1330
atp4859
Rp4860
sg42
(lp4861
g371
asg23
(lp4862
g0
(g46
g8
(lp4863
tp4864
Rp4865
(dp4866
g51
g52
(g53
tp4867
Rp4868
sg56
I00
sg57
I0
sbasg58
I255
sg59
g3758
sg62
(dp4869
(I0
I0
tp4870
g3761
sstp4871
Rp4872
ag0
(g10
g2
(dp4873
g12
g0
(g13
g8
(lp4874
g3875
ag3771
ag1604
atp4875
Rp4876
sg42
(lp4877
g371
asg23
(lp4878
g0
(g46
g8
(lp4879
tp4880
Rp4881
(dp4882
g51
g52
(g53
tp4883
Rp4884
sg56
I00
sg57
I0
sbasg58
I256
sg59
g3758
sg62
(dp4885
(I0
I0
tp4886
g3761
sstp4887
Rp4888
ag0
(g10
g2
(dp4889
g12
g0
(g13
g8
(lp4890
g3875
ag3812
ag1774
atp4891
Rp4892
sg42
(lp4893
g371
asg23
(lp4894
g0
(g46
g8
(lp4895
tp4896
Rp4897
(dp4898
g51
g52
(g53
tp4899
Rp4900
sg56
I00
sg57
I0
sbasg58
I257
sg59
g3758
sg62
(dp4901
(I0
I0
tp4902
g3761
sstp4903
Rp4904
ag0
(g10
g2
(dp4905
g12
g0
(g13
g8
(lp4906
g3834
ag3894
ag1476
atp4907
Rp4908
sg42
(lp4909
g371
asg23
(lp4910
g0
(g46
g8
(lp4911
tp4912
Rp4913
(dp4914
g51
g52
(g53
tp4915
Rp4916
sg56
I00
sg57
I0
sbasg58
I258
sg59
g3758
sg62
(dp4917
(I0
I0
tp4918
g3761
sstp4919
Rp4920
ag0
(g10
g2
(dp4921
g12
g0
(g13
g8
(lp4922
g3875
ag3853
ag1476
atp4923
Rp4924
sg42
(lp4925
g371
asg23
(lp4926
g0
(g46
g8
(lp4927
tp4928
Rp4929
(dp4930
g51
g52
(g53
tp4931
Rp4932
sg56
I00
sg57
I0
sbasg58
I259
sg59
g3758
sg62
(dp4933
(I0
I0
tp4934
g3761
sstp4935
Rp4936
ag0
(g10
g2
(dp4937
g12
g0
(g13
g8
(lp4938
g3957
ag3894
ag2082
atp4939
Rp4940
sg42
(lp4941
g371
asg23
(lp4942
g0
(g46
g8
(lp4943
tp4944
Rp4945
(dp4946
g51
g52
(g53
tp4947
Rp4948
sg56
I00
sg57
I0
sbasg58
I260
sg59
g3758
sg62
(dp4949
(I0
I0
tp4950
g3761
sstp4951
Rp4952
ag0
(g10
g2
(dp4953
g12
g0
(g13
g8
(lp4954
g3875
ag3976
ag2082
atp4955
Rp4956
sg42
(lp4957
g371
asg23
(lp4958
g0
(g46
g8
(lp4959
tp4960
Rp4961
(dp4962
g51
g52
(g53
tp4963
Rp4964
sg56
I00
sg57
I0
sbasg58
I261
sg59
g3758
sg62
(dp4965
(I0
I0
tp4966
g3761
sstp4967
Rp4968
ag0
(g10
g2
(dp4969
g12
g0
(g13
g8
(lp4970
g3998
ag3894
ag2695
atp4971
Rp4972
sg42
(lp4973
g371
asg23
(lp4974
g0
(g46
g8
(lp4975
tp4976
Rp4977
(dp4978
g51
g52
(g53
tp4979
Rp4980
sg56
I00
sg57
I0
sbasg58
I262
sg59
g3758
sg62
(dp4981
(I0
I0
tp4982
g3761
sstp4983
Rp4984
ag0
(g10
g2
(dp4985
g12
g0
(g13
g8
(lp4986
g3875
ag4017
ag2695
atp4987
Rp4988
sg42
(lp4989
g371
asg23
(lp4990
g0
(g46
g8
(lp4991
tp4992
Rp4993
(dp4994
g51
g52
(g53
tp4995
Rp4996
sg56
I00
sg57
I0
sbasg58
I263
sg59
g3758
sg62
(dp4997
(I0
I0
tp4998
g3761
sstp4999
Rp5000
ag0
(g10
g2
(dp5001
g12
g0
(g13
g8
(lp5002
g3916
ag3747
ag1526
atp5003
Rp5004
sg42
(lp5005
g371
asg23
(lp5006
g0
(g46
g8
(lp5007
tp5008
Rp5009
(dp5010
g51
g52
(g53
tp5011
Rp5012
sg56
I00
sg57
I0
sbasg58
I264
sg59
g3758
sg62
(dp5013
(I0
I0
tp5014
g3761
sstp5015
Rp5016
ag0
(g10
g2
(dp5017
g12
g0
(g13
g8
(lp5018
g3916
ag4039
ag1358
atp5019
Rp5020
sg42
(lp5021
g371
asg23
(lp5022
g0
(g46
g8
(lp5023
tp5024
Rp5025
(dp5026
g51
g52
(g53
tp5027
Rp5028
sg56
I00
sg57
I0
sbasg58
I265
sg59
g3758
sg62
(dp5029
(I0
I0
tp5030
g3761
sstp5031
Rp5032
ag0
(g10
g2
(dp5033
g12
g0
(g13
g8
(lp5034
g3916
ag3771
ag1632
atp5035
Rp5036
sg42
(lp5037
g371
asg23
(lp5038
g0
(g46
g8
(lp5039
tp5040
Rp5041
(dp5042
g51
g52
(g53
tp5043
Rp5044
sg56
I00
sg57
I0
sbasg58
I266
sg59
g3758
sg62
(dp5045
(I0
I0
tp5046
g3761
sstp5047
Rp5048
ag0
(g10
g2
(dp5049
g12
g0
(g13
g8
(lp5050
g3916
ag3812
ag1802
atp5051
Rp5052
sg42
(lp5053
g371
asg23
(lp5054
g0
(g46
g8
(lp5055
tp5056
Rp5057
(dp5058
g51
g52
(g53
tp5059
Rp5060
sg56
I00
sg57
I0
sbasg58
I267
sg59
g3758
sg62
(dp5061
(I0
I0
tp5062
g3761
sstp5063
Rp5064
ag0
(g10
g2
(dp5065
g12
g0
(g13
g8
(lp5066
g3916
ag3853
ag1928
atp5067
Rp5068
sg42
(lp5069
g371
asg23
(lp5070
g0
(g46
g8
(lp5071
tp5072
Rp5073
(dp5074
g51
g52
(g53
tp5075
Rp5076
sg56
I00
sg57
I0
sbasg58
I268
sg59
g3758
sg62
(dp5077
(I0
I0
tp5078
g3761
sstp5079
Rp5080
ag0
(g10
g2
(dp5081
g12
g0
(g13
g8
(lp5082
g3875
ag3935
ag1504
atp5083
Rp5084
sg42
(lp5085
g371
asg23
(lp5086
g0
(g46
g8
(lp5087
tp5088
Rp5089
(dp5090
g51
g52
(g53
tp5091
Rp5092
sg56
I00
sg57
I0
sbasg58
I269
sg59
g3758
sg62
(dp5093
(I0
I0
tp5094
g3761
sstp5095
Rp5096
ag0
(g10
g2
(dp5097
g12
g0
(g13
g8
(lp5098
g3916
ag3894
ag1504
atp5099
Rp5100
sg42
(lp5101
g371
asg23
(lp5102
g0
(g46
g8
(lp5103
tp5104
Rp5105
(dp5106
g51
g52
(g53
tp5107
Rp5108
sg56
I00
sg57
I0
sbasg58
I270
sg59
g3758
sg62
(dp5109
(I0
I0
tp5110
g3761
sstp5111
Rp5112
ag0
(g10
g2
(dp5113
g12
g0
(g13
g8
(lp5114
g3998
ag3935
ag2110
atp5115
Rp5116
sg42
(lp5117
g371
asg23
(lp5118
g0
(g46
g8
(lp5119
tp5120
Rp5121
(dp5122
g51
g52
(g53
tp5123
Rp5124
sg56
I00
sg57
I0
sbasg58
I271
sg59
g3758
sg62
(dp5125
(I0
I0
tp5126
g3761
sstp5127
Rp5128
ag0
(g10
g2
(dp5129
g12
g0
(g13
g8
(lp5130
g3916
ag4017
ag2110
atp5131
Rp5132
sg42
(lp5133
g371
asg23
(lp5134
g0
(g46
g8
(lp5135
tp5136
Rp5137
(dp5138
g51
g52
(g53
tp5139
Rp5140
sg56
I00
sg57
I0
sbasg58
I272
sg59
g3758
sg62
(dp5141
(I0
I0
tp5142
g3761
sstp5143
Rp5144
ag0
(g10
g2
(dp5145
g12
g0
(g13
g8
(lp5146
g3957
ag3747
ag0
(g15
g2
(dp5147
g17
S'g81'
p5148
sg19
I01
sg20
S'g81'
p5149
sg22
I01
sg23
I1
sg24
g73
sg26
F0.0
sg27
g73
sg29
S'g81'
p5150
sg31
I0
sg32
g75
sg34
I01
sg35
I3
sg36
g5148
sg37
I9081
stp5151
Rp5152
atp5153
Rp5154
sg42
(lp5155
g371
asg23
(lp5156
g0
(g46
g8
(lp5157
tp5158
Rp5159
(dp5160
g51
g52
(g53
tp5161
Rp5162
sg56
I00
sg57
I0
sbasg58
I273
sg59
g3758
sg62
(dp5163
(I0
I0
tp5164
g3761
sstp5165
Rp5166
ag0
(g10
g2
(dp5167
g12
g0
(g13
g8
(lp5168
g3957
ag4039
ag1386
atp5169
Rp5170
sg42
(lp5171
g371
asg23
(lp5172
g0
(g46
g8
(lp5173
tp5174
Rp5175
(dp5176
g51
g52
(g53
tp5177
Rp5178
sg56
I00
sg57
I0
sbasg58
I274
sg59
g3758
sg62
(dp5179
(I0
I0
tp5180
g3761
sstp5181
Rp5182
ag0
(g10
g2
(dp5183
g12
g0
(g13
g8
(lp5184
g3957
ag3771
ag1660
atp5185
Rp5186
sg42
(lp5187
g371
asg23
(lp5188
g0
(g46
g8
(lp5189
tp5190
Rp5191
(dp5192
g51
g52
(g53
tp5193
Rp5194
sg56
I00
sg57
I0
sbasg58
I275
sg59
g3758
sg62
(dp5195
(I0
I0
tp5196
g3761
sstp5197
Rp5198
ag0
(g10
g2
(dp5199
g12
g0
(g13
g8
(lp5200
g3957
ag3812
ag1830
atp5201
Rp5202
sg42
(lp5203
g371
asg23
(lp5204
g0
(g46
g8
(lp5205
tp5206
Rp5207
(dp5208
g51
g52
(g53
tp5209
Rp5210
sg56
I00
sg57
I0
sbasg58
I276
sg59
g3758
sg62
(dp5211
(I0
I0
tp5212
g3761
sstp5213
Rp5214
ag0
(g10
g2
(dp5215
g12
g0
(g13
g8
(lp5216
g3957
ag3853
ag1956
atp5217
Rp5218
sg42
(lp5219
g371
asg23
(lp5220
g0
(g46
g8
(lp5221
tp5222
Rp5223
(dp5224
g51
g52
(g53
tp5225
Rp5226
sg56
I00
sg57
I0
sbasg58
I277
sg59
g3758
sg62
(dp5227
(I0
I0
tp5228
g3761
sstp5229
Rp5230
ag0
(g10
g2
(dp5231
g12
g0
(g13
g8
(lp5232
g3957
ag3894
ag2038
atp5233
Rp5234
sg42
(lp5235
g371
asg23
(lp5236
g0
(g46
g8
(lp5237
tp5238
Rp5239
(dp5240
g51
g52
(g53
tp5241
Rp5242
sg56
I00
sg57
I0
sbasg58
I278
sg59
g3758
sg62
(dp5243
(I0
I0
tp5244
g3761
sstp5245
Rp5246
ag0
(g10
g2
(dp5247
g12
g0
(g13
g8
(lp5248
g3916
ag3976
ag1532
atp5249
Rp5250
sg42
(lp5251
g371
asg23
(lp5252
g0
(g46
g8
(lp5253
tp5254
Rp5255
(dp5256
g51
g52
(g53
tp5257
Rp5258
sg56
I00
sg57
I0
sbasg58
I279
sg59
g3758
sg62
(dp5259
(I0
I0
tp5260
g3761
sstp5261
Rp5262
ag0
(g10
g2
(dp5263
g12
g0
(g13
g8
(lp5264
g3957
ag3935
ag1532
atp5265
Rp5266
sg42
(lp5267
g371
asg23
(lp5268
g0
(g46
g8
(lp5269
tp5270
Rp5271
(dp5272
g51
g52
(g53
tp5273
Rp5274
sg56
I00
sg57
I0
sbasg58
I280
sg59
g3758
sg62
(dp5275
(I0
I0
tp5276
g3761
sstp5277
Rp5278
ag0
(g10
g2
(dp5279
g12
g0
(g13
g8
(lp5280
g3998
ag3747
ag0
(g15
g2
(dp5281
g17
S'g91'
p5282
sg19
I01
sg20
S'g91'
p5283
sg22
I01
sg23
I1
sg24
g73
sg26
F0.0
sg27
g73
sg29
S'g91'
p5284
sg31
I0
sg32
g75
sg34
I01
sg35
I3
sg36
g5282
sg37
I9091
stp5285
Rp5286
atp5287
Rp5288
sg42
(lp5289
g371
asg23
(lp5290
g0
(g46
g8
(lp5291
tp5292
Rp5293
(dp5294
g51
g52
(g53
tp5295
Rp5296
sg56
I00
sg57
I0
sbasg58
I281
sg59
g3758
sg62
(dp5297
(I0
I0
tp5298
g3761
sstp5299
Rp5300
ag0
(g10
g2
(dp5301
g12
g0
(g13
g8
(lp5302
g3998
ag4039
ag0
(g15
g2
(dp5303
g17
S'g92'
p5304
sg19
I01
sg20
S'g92'
p5305
sg22
I01
sg23
I1
sg24
g73
sg26
F0.0
sg27
g73
sg29
S'g92'
p5306
sg31
I0
sg32
g75
sg34
I01
sg35
I3
sg36
g5304
sg37
I9092
stp5307
Rp5308
atp5309
Rp5310
sg42
(lp5311
g371
asg23
(lp5312
g0
(g46
g8
(lp5313
tp5314
Rp5315
(dp5316
g51
g52
(g53
tp5317
Rp5318
sg56
I00
sg57
I0
sbasg58
I282
sg59
g3758
sg62
(dp5319
(I0
I0
tp5320
g3761
sstp5321
Rp5322
ag0
(g10
g2
(dp5323
g12
g0
(g13
g8
(lp5324
g3998
ag3771
ag0
(g15
g2
(dp5325
g17
S'g93'
p5326
sg19
I01
sg20
S'g93'
p5327
sg22
I01
sg23
I1
sg24
g73
sg26
F0.0
sg27
g73
sg29
S'g93'
p5328
sg31
I0
sg32
g75
sg34
I01
sg35
I3
sg36
g5326
sg37
I9093
stp5329
Rp5330
atp5331
Rp5332
sg42
(lp5333
g371
asg23
(lp5334
g0
(g46
g8
(lp5335
tp5336
Rp5337
(dp5338
g51
g52
(g53
tp5339
Rp5340
sg56
I00
sg57
I0
sbasg58
I283
sg59
g3758
sg62
(dp5341
(I0
I0
tp5342
g3761
sstp5343
Rp5344
ag0
(g10
g2
(dp5345
g12
g0
(g13
g8
(lp5346
g3998
ag3812
ag0
(g15
g2
(dp5347
g17
S'g94'
p5348
sg19
I01
sg20
S'g94'
p5349
sg22
I01
sg23
I1
sg24
g73
sg26
F0.0
sg27
g73
sg29
S'g94'
p5350
sg31
I0
sg32
g75
sg34
I01
sg35
I3
sg36
g5348
sg37
I9094
stp5351
Rp5352
atp5353
Rp5354
sg42
(lp5355
g371
asg23
(lp5356
g0
(g46
g8
(lp5357
tp5358
Rp5359
(dp5360
g51
g52
(g53
tp5361
Rp5362
sg56
I00
sg57
I0
sbasg58
I284
sg59
g3758
sg62
(dp5363
(I0
I0
tp5364
g3761
sstp5365
Rp5366
ag0
(g10
g2
(dp5367
g12
g0
(g13
g8
(lp5368
g3998
ag3853
ag0
(g15
g2
(dp5369
g17
S'g95'
p5370
sg19
I01
sg20
S'g95'
p5371
sg22
I01
sg23
I1
sg24
g73
sg26
F0.0
sg27
g73
sg29
S'g95'
p5372
sg31
I0
sg32
g75
sg34
I01
sg35
I3
sg36
g5370
sg37
I9095
stp5373
Rp5374
atp5375
Rp5376
sg42
(lp5377
g371
asg23
(lp5378
g0
(g46
g8
(lp5379
tp5380
Rp5381
(dp5382
g51
g52
(g53
tp5383
Rp5384
sg56
I00
sg57
I0
sbasg58
I285
sg59
g3758
sg62
(dp5385
(I0
I0
tp5386
g3761
sstp5387
Rp5388
ag0
(g10
g2
(dp5389
g12
g0
(g13
g8
(lp5390
g3998
ag3894
ag0
(g15
g2
(dp5391
g17
S'g96'
p5392
sg19
I01
sg20
S'g96'
p5393
sg22
I01
sg23
I1
sg24
g73
sg26
F0.0
sg27
g73
sg29
S'g96'
p5394
sg31
I0
sg32
g75
sg34
I01
sg35
I3
sg36
g5392
sg37
I9096
stp5395
Rp5396
atp5397
Rp5398
sg42
(lp5399
g371
asg23
(lp5400
g0
(g46
g8
(lp5401
tp5402
Rp5403
(dp5404
g51
g52
(g53
tp5405
Rp5406
sg56
I00
sg57
I0
sbasg58
I286
sg59
g3758
sg62
(dp5407
(I0
I0
tp5408
g3761
sstp5409
Rp5410
ag0
(g10
g2
(dp5411
g12
g0
(g13
g8
(lp5412
g3998
ag3935
ag0
(g15
g2
(dp5413
g17
S'g97'
p5414
sg19
I01
sg20
S'g97'
p5415
sg22
I01
sg23
I1
sg24
g73
sg26
F0.0
sg27
g73
sg29
S'g97'
p5416
sg31
I0
sg32
g75
sg34
I01
sg35
I3
sg36
g5414
sg37
I9097
stp5417
Rp5418
atp5419
Rp5420
sg42
(lp5421
g371
asg23
(lp5422
g0
(g46
g8
(lp5423
tp5424
Rp5425
(dp5426
g51
g52
(g53
tp5427
Rp5428
sg56
I00
sg57
I0
sbasg58
I287
sg59
g3758
sg62
(dp5429
(I0
I0
tp5430
g3761
sstp5431
Rp5432
ag0
(g10
g2
(dp5433
g12
g0
(g13
g8
(lp5434
g3957
ag4017
ag2104
atp5435
Rp5436
sg42
(lp5437
g371
asg23
(lp5438
g0
(g46
g8
(lp5439
tp5440
Rp5441
(dp5442
g51
g52
(g53
tp5443
Rp5444
sg56
I00
sg57
I0
sbasg58
I288
sg59
g3758
sg62
(dp5445
(I0
I0
tp5446
g3761
sstp5447
Rp5448
ag0
(g10
g2
(dp5449
g12
g0
(g13
g8
(lp5450
g3998
ag3976
ag2104
atp5451
Rp5452
sg42
(lp5453
g371
asg23
(lp5454
g0
(g46
g8
(lp5455
tp5456
Rp5457
(dp5458
g51
g52
(g53
tp5459
Rp5460
sg56
I00
sg57
I0
sbasg58
I289
sg59
g3758
sg62
(dp5461
(I0
I0
tp5462
g3761
sstp5463
Rp5464
ag0
(g10
g2
(dp5465
g12
g0
(g13
g8
(lp5466
g3768
ag3747
ag0
(g15
g2
(dp5467
g17
S'g0'
p5468
sg19
I01
sg20
S'g0'
p5469
sg22
I01
sg23
I1
sg24
g73
sg26
F0.0
sg27
g73
sg29
S'g0'
p5470
sg31
I0
sg32
g152
sg34
I01
sg35
I3
sg36
g5468
sg37
I9000
stp5471
Rp5472
atp5473
Rp5474
sg42
(lp5475
g371
asg23
(lp5476
g0
(g46
g8
(lp5477
tp5478
Rp5479
(dp5480
g51
g52
(g53
tp5481
Rp5482
sg56
I00
sg57
I0
sbasg58
I290
sg59
(dp5483
g93
I1
ssg62
(dp5484
(I0
I0
tp5485
S'GG0'
p5486
sstp5487
Rp5488
ag0
(g10
g2
(dp5489
g12
g0
(g13
g8
(lp5490
g4058
ag4039
ag5472
atp5491
Rp5492
sg42
(lp5493
g371
asg23
(lp5494
g0
(g46
g8
(lp5495
tp5496
Rp5497
(dp5498
g51
g52
(g53
tp5499
Rp5500
sg56
I00
sg57
I0
sbasg58
I291
sg59
g5483
sg62
(dp5501
(I0
I0
tp5502
g5486
sstp5503
Rp5504
ag0
(g10
g2
(dp5505
g12
g0
(g13
g8
(lp5506
g3741
ag3771
ag5472
atp5507
Rp5508
sg42
(lp5509
g371
asg23
(lp5510
g0
(g46
g8
(lp5511
tp5512
Rp5513
(dp5514
g51
g52
(g53
tp5515
Rp5516
sg56
I00
sg57
I0
sbasg58
I292
sg59
g5483
sg62
(dp5517
(I0
I0
tp5518
g5486
sstp5519
Rp5520
ag0
(g10
g2
(dp5521
g12
g0
(g13
g8
(lp5522
g3793
ag3812
ag5472
atp5523
Rp5524
sg42
(lp5525
g371
asg23
(lp5526
g0
(g46
g8
(lp5527
tp5528
Rp5529
(dp5530
g51
g52
(g53
tp5531
Rp5532
sg56
I00
sg57
I0
sbasg58
I293
sg59
g5483
sg62
(dp5533
(I0
I0
tp5534
g5486
sstp5535
Rp5536
ag0
(g10
g2
(dp5537
g12
g0
(g13
g8
(lp5538
g3834
ag3853
ag5472
atp5539
Rp5540
sg42
(lp5541
g371
asg23
(lp5542
g0
(g46
g8
(lp5543
tp5544
Rp5545
(dp5546
g51
g52
(g53
tp5547
Rp5548
sg56
I00
sg57
I0
sbasg58
I294
sg59
g5483
sg62
(dp5549
(I0
I0
tp5550
g5486
sstp5551
Rp5552
ag0
(g10
g2
(dp5553
g12
g0
(g13
g8
(lp5554
g3875
ag3894
ag5472
atp5555
Rp5556
sg42
(lp5557
g371
asg23
(lp5558
g0
(g46
g8
(lp5559
tp5560
Rp5561
(dp5562
g51
g52
(g53
tp5563
Rp5564
sg56
I00
sg57
I0
sbasg58
I295
sg59
g5483
sg62
(dp5565
(I0
I0
tp5566
g5486
sstp5567
Rp5568
ag0
(g10
g2
(dp5569
g12
g0
(g13
g8
(lp5570
g3916
ag3935
ag5472
atp5571
Rp5572
sg42
(lp5573
g371
asg23
(lp5574
g0
(g46
g8
(lp5575
tp5576
Rp5577
(dp5578
g51
g52
(g53
tp5579
Rp5580
sg56
I00
sg57
I0
sbasg58
I296
sg59
g5483
sg62
(dp5581
(I0
I0
tp5582
g5486
sstp5583
Rp5584
ag0
(g10
g2
(dp5585
g12
g0
(g13
g8
(lp5586
g3957
ag3976
ag5472
atp5587
Rp5588
sg42
(lp5589
g371
asg23
(lp5590
g0
(g46
g8
(lp5591
tp5592
Rp5593
(dp5594
g51
g52
(g53
tp5595
Rp5596
sg56
I00
sg57
I0
sbasg58
I297
sg59
g5483
sg62
(dp5597
(I0
I0
tp5598
g5486
sstp5599
Rp5600
ag0
(g10
g2
(dp5601
g12
g0
(g13
g8
(lp5602
g3998
ag4017
ag5472
atp5603
Rp5604
sg42
(lp5605
g371
asg23
(lp5606
g0
(g46
g8
(lp5607
tp5608
Rp5609
(dp5610
g51
g52
(g53
tp5611
Rp5612
sg56
I00
sg57
I0
sbasg58
I298
sg59
g5483
sg62
(dp5613
(I0
I0
tp5614
g5486
sstp5615
Rp5616
atp5617
Rp5618
sS'coupling_orders'
p5619
NsS'conserved_charge'
p5620
c__builtin__
set
p5621
((lp5622
g31
ag26
atp5623
Rp5624
sS'particle_dict'
p5625
(dp5626
I1
g367
sI2
g531
sI3
g398
sI4
g560
sI5
g426
sI6
g589
sI11
g453
sI12
g1008
sI13
g480
sI14
g1030
sI15
g506
sI16
g1052
sI21
g77
sI22
g154
sI23
g248
sI24
g165
sI25
g39
sI90710
g0
(g15
g2
(dp5627
g17
S'g7a'
p5628
sg19
I01
sg20
S'g7a'
p5629
sg22
I01
sg23
I1
sg24
g73
sg26
F0.0
sg27
g73
sg29
S'g7a'
p5630
sg31
I0
sg32
g75
sg34
I01
sg35
I3
sg36
g5628
sg37
I90710
stp5631
Rp5632
sI90210
g0
(g15
g2
(dp5633
g17
S'g2a'
p5634
sg19
I01
sg20
S'g2a'
p5635
sg22
I01
sg23
I1
sg24
g73
sg26
F0.0
sg27
g73
sg29
S'g2a'
p5636
sg31
I0
sg32
g75
sg34
I01
sg35
I3
sg36
g5634
sg37
I90210
stp5637
Rp5638
sI-90010
g0
(g15
g2
(dp5639
g17
S'ua'
p5640
sg34
I00
sg20
S'ua'
p5641
sg22
I00
sg23
I1
sg24
g73
sg26
F0.66666666666666663
sg27
g73
sg31
I0
sg29
S'ua~'
p5642
sg32
g362
sg19
I01
sg35
I2
sg36
g5640
sg37
I90010
stp5643
Rp5644
sI90810
g0
(g15
g2
(dp5645
g17
S'g8a'
p5646
sg19
I01
sg20
S'g8a'
p5647
sg22
I01
sg23
I1
sg24
g73
sg26
F0.0
sg27
g73
sg29
S'g8a'
p5648
sg31
I0
sg32
g75
sg34
I01
sg35
I3
sg36
g5646
sg37
I90810
stp5649
Rp5650
sI90310
g0
(g15
g2
(dp5651
g17
S'g3a'
p5652
sg19
I01
sg20
S'g3a'
p5653
sg22
I01
sg23
I1
sg24
g73
sg26
F0.0
sg27
g73
sg29
S'g3a'
p5654
sg31
I0
sg32
g75
sg34
I01
sg35
I3
sg36
g5652
sg37
I90310
stp5655
Rp5656
sI-9009
g3998
sI-9008
g3957
sI-9007
g3916
sI-9006
g3875
sI-9005
g3834
sI-9004
g3793
sI-9003
g3741
sI-9002
g4058
sI-9001
g3768
sI9002
g4039
sI9000
g5472
sI9001
g3747
sI90410
g0
(g15
g2
(dp5657
g17
S'g4a'
p5658
sg19
I01
sg20
S'g4a'
p5659
sg22
I01
sg23
I1
sg24
g73
sg26
F0.0
sg27
g73
sg29
S'g4a'
p5660
sg31
I0
sg32
g75
sg34
I01
sg35
I3
sg36
g5658
sg37
I90410
stp5661
Rp5662
sI9003
g3771
sI9004
g3812
sI9005
g3853
sI9006
g3894
sI9007
g3935
sI9008
g3976
sI9009
g4017
sI9013
g1252
sI9014
g1280
sI9015
g1308
sI9016
g1336
sI9017
g1364
sI9018
g1392
sI9019
g3689
sI9021
g1240
sI9024
g1554
sI9025
g1582
sI9026
g1610
sI9027
g1638
sI9028
g1666
sI9029
g3667
sI9031
g1414
sI9032
g1246
sI9035
g1752
sI9036
g1780
sI9037
g1808
sI9038
g1836
sI9039
g3628
sI9041
g1442
sI9042
g1274
sI9043
g1420
sI9102
g0
(g15
g2
(dp5663
g17
S'ga2'
p5664
sg19
I01
sg20
S'ga2'
p5665
sg22
I01
sg23
I1
sg24
g73
sg26
F0.0
sg27
g73
sg29
S'ga2'
p5666
sg31
I0
sg32
g75
sg34
I01
sg35
I3
sg36
g5664
sg37
I9102
stp5667
Rp5668
sI9046
g1906
sI9047
g1934
sI9048
g1962
sI9049
g3477
sI9051
g1470
sI9052
g1302
sI9053
g1576
sI9054
g1448
sI9057
g2016
sI9058
g2044
sI9059
g3166
sI9061
g1498
sI9062
g1330
sI9063
g1604
sI9064
g1774
sI9065
g1476
sI9068
g2082
sI9069
g2695
sI9071
g1526
sI9072
g1358
sI9073
g1632
sI9074
g1802
sI9075
g1928
sI9076
g1504
sI9079
g2110
sI9081
g5152
sI9082
g1386
sI9083
g1660
sI9084
g1830
sI9085
g1956
sI9086
g2038
sI9087
g1532
sI9091
g5286
sI9092
g5308
sI9093
g5330
sI9094
g5352
sI9095
g5374
sI9096
g5396
sI9097
g5418
sI9098
g2104
sI90510
g0
(g15
g2
(dp5669
g17
S'g5a'
p5670
sg19
I01
sg20
S'g5a'
p5671
sg22
I01
sg23
I1
sg24
g73
sg26
F0.0
sg27
g73
sg29
S'g5a'
p5672
sg31
I0
sg32
g75
sg34
I01
sg35
I3
sg36
g5670
sg37
I90510
stp5673
Rp5674
sI9103
g0
(g15
g2
(dp5675
g17
S'ga3'
p5676
sg19
I01
sg20
S'ga3'
p5677
sg22
I01
sg23
I1
sg24
g73
sg26
F0.0
sg27
g73
sg29
S'ga3'
p5678
sg31
I0
sg32
g75
sg34
I01
sg35
I3
sg36
g5676
sg37
I9103
stp5679
Rp5680
sI9104
g0
(g15
g2
(dp5681
g17
S'ga4'
p5682
sg19
I01
sg20
S'ga4'
p5683
sg22
I01
sg23
I1
sg24
g73
sg26
F0.0
sg27
g73
sg29
S'ga4'
p5684
sg31
I0
sg32
g75
sg34
I01
sg35
I3
sg36
g5682
sg37
I9104
stp5685
Rp5686
sI9105
g0
(g15
g2
(dp5687
g17
S'ga5'
p5688
sg19
I01
sg20
S'ga5'
p5689
sg22
I01
sg23
I1
sg24
g73
sg26
F0.0
sg27
g73
sg29
S'ga5'
p5690
sg31
I0
sg32
g75
sg34
I01
sg35
I3
sg36
g5688
sg37
I9105
stp5691
Rp5692
sI9106
g0
(g15
g2
(dp5693
g17
S'ga6'
p5694
sg19
I01
sg20
S'ga6'
p5695
sg22
I01
sg23
I1
sg24
g73
sg26
F0.0
sg27
g73
sg29
S'ga6'
p5696
sg31
I0
sg32
g75
sg34
I01
sg35
I3
sg36
g5694
sg37
I9106
stp5697
Rp5698
sI9107
g0
(g15
g2
(dp5699
g17
S'ga7'
p5700
sg19
I01
sg20
S'ga7'
p5701
sg22
I01
sg23
I1
sg24
g73
sg26
F0.0
sg27
g73
sg29
S'ga7'
p5702
sg31
I0
sg32
g75
sg34
I01
sg35
I3
sg36
g5700
sg37
I9107
stp5703
Rp5704
sI9108
g0
(g15
g2
(dp5705
g17
S'ga8'
p5706
sg19
I01
sg20
S'ga8'
p5707
sg22
I01
sg23
I1
sg24
g73
sg26
F0.0
sg27
g73
sg29
S'ga8'
p5708
sg31
I0
sg32
g75
sg34
I01
sg35
I3
sg36
g5706
sg37
I9108
stp5709
Rp5710
sI9109
g3712
sI90010
g0
(g15
g2
(dp5711
g17
g5640
sg19
I01
sg20
g5641
sg22
I00
sg23
I1
sg24
g73
sg26
F0.66666666666666663
sg27
g73
sg29
g5642
sg31
I0
sg32
g362
sg34
I01
sg35
I2
sg36
g5640
sg37
I90010
stp5712
Rp5713
sI-14
g1090
sI-11
g450
sI-1
g364
sI-24
g162
sI-16
g1109
sI-15
g503
sI90610
g0
(g15
g2
(dp5714
g17
S'g6a'
p5715
sg19
I01
sg20
S'g6a'
p5716
sg22
I01
sg23
I1
sg24
g73
sg26
F0.0
sg27
g73
sg29
S'g6a'
p5717
sg31
I0
sg32
g75
sg34
I01
sg35
I3
sg36
g5715
sg37
I90610
stp5718
Rp5719
sI-13
g477
sI-12
g1071
sI-2
g528
sI-6
g586
sI-5
g423
sI-4
g557
sI-3
g395
sI90110
g3718
ssg42
NsS'got_majoranas'
p5720
NsS'order_hierarchy'
p5721
(dp5722
sS'functions'
p5723
(lp5724
g0
(ccfqcd7.object_library
Function
p5725
c__builtin__
object
p5726
Ntp5727
Rp5728
(dp5729
S'expr'
p5730
S'z.conjugate()'
p5731
sg20
S'complexconjugate'
p5732
sS'arguments'
p5733
(S'z'
p5734
tp5735
sbag0
(g5725
g5726
Ntp5736
Rp5737
(dp5738
g5730
S'z.real'
p5739
sg20
S're'
p5740
sg5733
(g5734
tp5741
sbag0
(g5725
g5726
Ntp5742
Rp5743
(dp5744
g5730
S'z.imag'
p5745
sg20
S'im'
p5746
sg5733
(g5734
tp5747
sbag0
(g5725
g5726
Ntp5748
Rp5749
(dp5750
g5730
S'1./cmath.cos(z)'
p5751
sg20
S'sec'
p5752
sg5733
(g5734
tp5753
sbag0
(g5725
g5726
Ntp5754
Rp5755
(dp5756
g5730
S'cmath.acos(1./z)'
p5757
sg20
S'asec'
p5758
sg5733
(g5734
tp5759
sbag0
(g5725
g5726
Ntp5760
Rp5761
(dp5762
g5730
S'1./cmath.sin(z)'
p5763
sg20
S'csc'
p5764
sg5733
(g5734
tp5765
sbag0
(g5725
g5726
Ntp5766
Rp5767
(dp5768
g5730
S'cmath.asin(1./z)'
p5769
sg20
S'acsc'
p5770
sg5733
(g5734
tp5771
sbasS'interaction_dict'
p5772
(dp5773
sg20
S'cfqcd7'
p5774
sS'parameters'
p5775
(dp5776
(S'aEWM1'
p5777
tp5778
(lp5779
g0
(cmadgraph.core.base_objects
ModelVariable
p5780
g5726
Ntp5781
Rp5782
(dp5783
g5730
S'1/aEWM1'
p5784
sS'type'
p5785
S'real'
p5786
sg20
S'aEW'
p5787
sS'value'
p5788
NsS'depend'
p5789
g5778
sbag0
(g5780
g5726
Ntp5790
Rp5791
(dp5792
g5730
S'cmath.sqrt(MZ__exp__2/2. + cmath.sqrt(MZ__exp__4/4. - (aEW*cmath.pi*MZ__exp__2)/(Gf*sqrt__2)))'
p5793
sg5785
g5786
sg20
g159
sg5788
Nsg5789
(g5777
tp5794
sbag0
(g5780
g5726
Ntp5795
Rp5796
(dp5797
g5730
S' cmath.sqrt(aEW) '
p5798
sg5785
g5786
sg20
S'sqrt__aEW'
p5799
sg5788
Nsg5789
(g5777
tp5800
sbag0
(g5780
g5726
Ntp5801
Rp5802
(dp5803
g5730
S'2*sqrt__aEW*cmath.sqrt(cmath.pi)'
p5804
sg5785
g5786
sg20
S'ee'
p5805
sg5788
Nsg5789
(g5777
tp5806
sbag0
(g5780
g5726
Ntp5807
Rp5808
(dp5809
g5730
S'MW**2'
p5810
sg5785
g5786
sg20
S'MW__exp__2'
p5811
sg5788
Nsg5789
(g5777
tp5812
sbag0
(g5780
g5726
Ntp5813
Rp5814
(dp5815
g5730
S'1 - MW__exp__2/MZ__exp__2'
p5816
sg5785
g5786
sg20
S'sw2'
p5817
sg5788
Nsg5789
(g5777
tp5818
sbag0
(g5780
g5726
Ntp5819
Rp5820
(dp5821
g5730
S'cmath.sqrt(1 - sw2)'
p5822
sg5785
g5786
sg20
S'cw'
p5823
sg5788
Nsg5789
(g5777
tp5824
sbag0
(g5780
g5726
Ntp5825
Rp5826
(dp5827
g5730
S' cmath.sqrt(sw2) '
p5828
sg5785
g5786
sg20
S'sqrt__sw2'
p5829
sg5788
Nsg5789
(g5777
tp5830
sbag0
(g5780
g5726
Ntp5831
Rp5832
(dp5833
g5730
g5829
sg5785
g5786
sg20
S'sw'
p5834
sg5788
Nsg5789
(g5777
tp5835
sbag0
(g5780
g5726
Ntp5836
Rp5837
(dp5838
g5730
S'ee/cw'
p5839
sg5785
g5786
sg20
S'g1'
p5840
sg5788
Nsg5789
(g5777
tp5841
sbag0
(g5780
g5726
Ntp5842
Rp5843
(dp5844
g5730
S'ee/sw'
p5845
sg5785
g5786
sg20
S'gw'
p5846
sg5788
Nsg5789
(g5777
tp5847
sbag0
(g5780
g5726
Ntp5848
Rp5849
(dp5850
g5730
S'(2*MW*sw)/ee'
p5851
sg5785
g5786
sg20
S'v'
p5852
sg5788
Nsg5789
(g5777
tp5853
sbag0
(g5780
g5726
Ntp5854
Rp5855
(dp5856
g5730
S'v**2'
p5857
sg5785
g5786
sg20
S'v__exp__2'
p5858
sg5788
Nsg5789
(g5777
tp5859
sbag0
(g5780
g5726
Ntp5860
Rp5861
(dp5862
g5730
S'MH__exp__2/(2.*v__exp__2)'
p5863
sg5785
g5786
sg20
S'lam'
p5864
sg5788
Nsg5789
(g5777
tp5865
sbag0
(g5780
g5726
Ntp5866
Rp5867
(dp5868
g5730
S'(ymb*sqrt__2)/v'
p5869
sg5785
g5786
sg20
S'yb'
p5870
sg5788
Nsg5789
(g5777
tp5871
sbag0
(g5780
g5726
Ntp5872
Rp5873
(dp5874
g5730
S'(ymt*sqrt__2)/v'
p5875
sg5785
g5786
sg20
S'yt'
p5876
sg5788
Nsg5789
(g5777
tp5877
sbag0
(g5780
g5726
Ntp5878
Rp5879
(dp5880
g5730
S'(ymtau*sqrt__2)/v'
p5881
sg5785
g5786
sg20
S'ytau'
p5882
sg5788
Nsg5789
(g5777
tp5883
sbag0
(g5780
g5726
Ntp5884
Rp5885
(dp5886
g5730
S'cmath.sqrt(lam*v__exp__2)'
p5887
sg5785
g5786
sg20
S'muH'
p5888
sg5788
Nsg5789
(g5777
tp5889
sbag0
(g5780
g5726
Ntp5890
Rp5891
(dp5892
g5730
S'gw**2'
p5893
sg5785
g5786
sg20
S'gw__exp__2'
p5894
sg5788
Nsg5789
(g5777
tp5895
sbag0
(g5780
g5726
Ntp5896
Rp5897
(dp5898
g5730
S'cw**2'
p5899
sg5785
g5786
sg20
S'cw__exp__2'
p5900
sg5788
Nsg5789
(g5777
tp5901
sbag0
(g5780
g5726
Ntp5902
Rp5903
(dp5904
g5730
S'ee**2'
p5905
sg5785
g5786
sg20
S'ee__exp__2'
p5906
sg5788
Nsg5789
(g5777
tp5907
sbag0
(g5780
g5726
Ntp5908
Rp5909
(dp5910
g5730
S'sw**2'
p5911
sg5785
g5786
sg20
S'sw__exp__2'
p5912
sg5788
Nsg5789
(g5777
tp5913
sbas(S'external'
p5914
tp5915
(lp5916
g0
(cmadgraph.core.base_objects
ParamCardVariable
p5917
g5726
Ntp5918
Rp5919
(dp5920
S'lhablock'
p5921
S'SMINPUTS'
p5922
sg20
S'aEWM1'
p5923
sg5788
F132.50698
sS'lhacode'
p5924
(lp5925
I1
asbag0
(g5917
g5726
Ntp5926
Rp5927
(dp5928
g5921
g5922
sg20
S'Gf'
p5929
sg5788
F1.16639e-05
sg5924
(lp5930
I2
asbag0
(g5917
g5726
Ntp5931
Rp5932
(dp5933
g5921
g5922
sg20
S'aS'
p5934
sg5788
F0.11799999999999999
sg5924
(lp5935
I3
asbag0
(g5917
g5726
Ntp5936
Rp5937
(dp5938
g5921
S'YUKAWA'
p5939
sg20
S'ymb'
p5940
sg5788
F4.2000000000000002
sg5924
(lp5941
I5
asbag0
(g5917
g5726
Ntp5942
Rp5943
(dp5944
g5921
g5939
sg20
S'ymt'
p5945
sg5788
F164.5
sg5924
(lp5946
I6
asbag0
(g5917
g5726
Ntp5947
Rp5948
(dp5949
g5921
g5939
sg20
S'ymtau'
p5950
sg5788
F1.7769999999999999
sg5924
(lp5951
I15
asbag0
(g5917
g5726
Ntp5952
Rp5953
(dp5954
g5921
S'MASS'
p5955
sg20
g500
sg5788
F1.7769999999999999
sg5924
(lp5956
I15
asbag0
(g5917
g5726
Ntp5957
Rp5958
(dp5959
g5921
g5955
sg20
g583
sg5788
F174.30000000000001
sg5924
(lp5960
I6
asbag0
(g5917
g5726
Ntp5961
Rp5962
(dp5963
g5921
g5955
sg20
g420
sg5788
F4.7000000000000002
sg5924
(lp5964
I5
asbag0
(g5917
g5726
Ntp5965
Rp5966
(dp5967
g5921
g5955
sg20
g245
sg5788
F91.188000000000002
sg5924
(lp5968
I23
asbag0
(g5917
g5726
Ntp5969
Rp5970
(dp5971
g5921
g5955
sg20
g28
sg5788
F120.0
sg5924
(lp5972
I25
asbag0
(g5917
g5726
Ntp5973
Rp5974
(dp5975
g5921
S'DECAY'
p5976
sg20
g582
sg5788
F1.50833649
sg5924
(lp5977
I6
asbag0
(g5917
g5726
Ntp5978
Rp5979
(dp5980
g5921
g5976
sg20
g244
sg5788
F2.4414035100000002
sg5924
(lp5981
I23
asbag0
(g5917
g5726
Ntp5982
Rp5983
(dp5984
g5921
g5976
sg20
g158
sg5788
F2.04759951
sg5924
(lp5985
I24
asbag0
(g5917
g5726
Ntp5986
Rp5987
(dp5988
g5921
g5976
sg20
g25
sg5788
F0.0057530884799999998
sg5924
(lp5989
I25
asbas(t(lp5990
g0
(g5780
g5726
Ntp5991
Rp5992
(dp5993
g5730
S'MZ**2'
p5994
sg5785
g5786
sg20
S'MZ__exp__2'
p5995
sg5788
Nsg5789
(tsbag0
(g5780
g5726
Ntp5996
Rp5997
(dp5998
g5730
S'MZ**4'
p5999
sg5785
g5786
sg20
S'MZ__exp__4'
p6000
sg5788
Nsg5789
(tsbag0
(g5780
g5726
Ntp6001
Rp6002
(dp6003
g5730
S' cmath.sqrt(2) '
p6004
sg5785
g5786
sg20
S'sqrt__2'
p6005
sg5788
Nsg5789
(tsbag0
(g5780
g5726
Ntp6006
Rp6007
(dp6008
g5730
S'MH**2'
p6009
sg5785
g5786
sg20
S'MH__exp__2'
p6010
sg5788
Nsg5789
(tsbag0
(g5780
g5726
Ntp6011
Rp6012
(dp6013
g5730
S'complex(0,1)'
p6014
sg5785
S'complex'
p6015
sg20
S'complexi'
p6016
sg5788
Nsg5789
(tsbas(S'aS'
p6017
tp6018
(lp6019
g0
(g5780
g5726
Ntp6020
Rp6021
(dp6022
g5730
S' cmath.sqrt(aS) '
p6023
sg5785
g5786
sg20
S'sqrt__aS'
p6024
sg5788
Nsg5789
g6018
sbag0
(g5780
g5726
Ntp6025
Rp6026
(dp6027
g5730
S'2*sqrt__aS*cmath.sqrt(cmath.pi)'
p6028
sg5785
g5786
sg20
g71
sg5788
Nsg5789
(g6017
tp6029
sbag0
(g5780
g5726
Ntp6030
Rp6031
(dp6032
g5730
S'G**2'
p6033
sg5785
g5786
sg20
S'G__exp__2'
p6034
sg5788
Nsg5789
(g6017
tp6035
sbassS'ref_dict_to1'
p6036
(dp6037
sS'expansion_order'
p6038
NsS'version_tag'
p6039
S"/home/yoshitar/packages/MadGraph5_v1_3_9/models/cfqcd7{'date': '2011-08-01', 'version': '1.3.9'}"
p6040
sg12
g0
(g13
g8
(lp6041
g1008
ag1030
ag1052
ag453
ag480
ag506
ag531
ag560
ag589
ag367
ag398
ag426
ag154
ag248
ag165
ag77
ag39
ag1252
ag1280
ag1308
ag1336
ag1364
ag1392
ag3689
ag3718
ag1240
ag1554
ag1582
ag1610
ag1638
ag1666
ag3667
ag5638
ag1414
ag1246
ag1752
ag1780
ag1808
ag1836
ag3628
ag5656
ag1442
ag1274
ag1420
ag1906
ag1934
ag1962
ag3477
ag5662
ag1470
ag1302
ag1576
ag1448
ag2016
ag2044
ag3166
ag5674
ag1498
ag1330
ag1604
ag1774
ag1476
ag2082
ag2695
ag5719
ag1526
ag1358
ag1632
ag1802
ag1928
ag1504
ag2110
ag5632
ag5152
ag1386
ag1660
ag1830
ag1956
ag2038
ag1532
ag5650
ag5286
ag5308
ag5330
ag5352
ag5374
ag5396
ag5418
ag2104
ag5668
ag5680
ag5686
ag5692
ag5698
ag5704
ag5710
ag3712
ag5472
ag3747
ag4039
ag3771
ag3812
ag3853
ag3894
ag3935
ag3976
ag4017
ag5713
atp6042
Rp6043
sg62
(dp6044
(g5777
tp6045
(lp6046
g0
(g5780
g5726
Ntp6047
Rp6048
(dp6049
g5730
S'-(ee*complexi)/3.'
p6050
sg5785
g6015
sg20
g385
sg5788
Nsg5789
g6045
sbag0
(g5780
g5726
Ntp6051
Rp6052
(dp6053
g5730
S'(2*ee*complexi)/3.'
p6054
sg5785
g6015
sg20
g547
sg5788
Nsg5789
(g5777
tp6055
sbag0
(g5780
g5726
Ntp6056
Rp6057
(dp6058
g5730
S'-(ee*complexi)'
p6059
sg5785
g6015
sg20
g467
sg5788
Nsg5789
(g5777
tp6060
sbag0
(g5780
g5726
Ntp6061
Rp6062
(dp6063
g5730
S'cw*complexi*gw'
p6064
sg5785
g6015
sg20
g262
sg5788
Nsg5789
(g5777
tp6065
sbag0
(g5780
g5726
Ntp6066
Rp6067
(dp6068
g5730
S'-(complexi*gw__exp__2)'
p6069
sg5785
g6015
sg20
g280
sg5788
Nsg5789
(g5777
tp6070
sbag0
(g5780
g5726
Ntp6071
Rp6072
(dp6073
g5730
S'cw__exp__2*complexi*gw__exp__2'
p6074
sg5785
g6015
sg20
g353
sg5788
Nsg5789
(g5777
tp6075
sbag0
(g5780
g5726
Ntp6076
Rp6077
(dp6078
g5730
S'(ee__exp__2*complexi)/(2.*sw__exp__2)'
p6079
sg5785
g6015
sg20
g198
sg5788
Nsg5789
(g5777
tp6080
sbag0
(g5780
g5726
Ntp6081
Rp6082
(dp6083
g5730
S'(ee*complexi)/(sw*sqrt__2)'
p6084
sg5785
g6015
sg20
g762
sg5788
Nsg5789
(g5777
tp6085
sbag0
(g5780
g5726
Ntp6086
Rp6087
(dp6088
g5730
S'-(cw*ee*complexi)/(2.*sw)'
p6089
sg5785
g6015
sg20
g704
sg5788
Nsg5789
(g5777
tp6090
sbag0
(g5780
g5726
Ntp6091
Rp6092
(dp6093
g5730
S'(cw*ee*complexi)/(2.*sw)'
p6094
sg5785
g6015
sg20
g1142
sg5788
Nsg5789
(g5777
tp6095
sbag0
(g5780
g5726
Ntp6096
Rp6097
(dp6098
g5730
S'-(ee*complexi*sw)/(6.*cw)'
p6099
sg5785
g6015
sg20
g702
sg5788
Nsg5789
(g5777
tp6100
sbag0
(g5780
g5726
Ntp6101
Rp6102
(dp6103
g5730
S'(ee*complexi*sw)/(2.*cw)'
p6104
sg5785
g6015
sg20
g963
sg5788
Nsg5789
(g5777
tp6105
sbag0
(g5780
g5726
Ntp6106
Rp6107
(dp6108
g5730
S'complexi*gw*sw'
p6109
sg5785
g6015
sg20
g179
sg5788
Nsg5789
(g5777
tp6110
sbag0
(g5780
g5726
Ntp6111
Rp6112
(dp6113
g5730
S'-2*cw*complexi*gw__exp__2*sw'
p6114
sg5785
g6015
sg20
g299
sg5788
Nsg5789
(g5777
tp6115
sbag0
(g5780
g5726
Ntp6116
Rp6117
(dp6118
g5730
S'complexi*gw__exp__2*sw__exp__2'
p6119
sg5785
g6015
sg20
g236
sg5788
Nsg5789
(g5777
tp6120
sbag0
(g5780
g5726
Ntp6121
Rp6122
(dp6123
g5730
S'(cw*ee*complexi)/(2.*sw) + (ee*complexi*sw)/(2.*cw)'
p6124
sg5785
g6015
sg20
g1198
sg5788
Nsg5789
(g5777
tp6125
sbag0
(g5780
g5726
Ntp6126
Rp6127
(dp6128
g5730
S'ee__exp__2*complexi + (cw__exp__2*ee__exp__2*complexi)/(2.*sw__exp__2) + (ee__exp__2*complexi*sw__exp__2)/(2.*cw__exp__2)'
p6129
sg5785
g6015
sg20
g317
sg5788
Nsg5789
(g5777
tp6130
sbag0
(g5780
g5726
Ntp6131
Rp6132
(dp6133
g5730
S'-6*complexi*lam*v'
p6134
sg5785
g6015
sg20
g65
sg5788
Nsg5789
(g5777
tp6135
sbag0
(g5780
g5726
Ntp6136
Rp6137
(dp6138
g5730
S'(ee__exp__2*complexi*v)/(2.*sw__exp__2)'
p6139
sg5785
g6015
sg20
g217
sg5788
Nsg5789
(g5777
tp6140
sbag0
(g5780
g5726
Ntp6141
Rp6142
(dp6143
g5730
S'ee__exp__2*complexi*v + (cw__exp__2*ee__exp__2*complexi*v)/(2.*sw__exp__2) + (ee__exp__2*complexi*sw__exp__2*v)/(2.*cw__exp__2)'
p6144
sg5785
g6015
sg20
g335
sg5788
Nsg5789
(g5777
tp6145
sbag0
(g5780
g5726
Ntp6146
Rp6147
(dp6148
g5730
S'-((complexi*yb)/sqrt__2)'
p6149
sg5785
g6015
sg20
g680
sg5788
Nsg5789
(g5777
tp6150
sbag0
(g5780
g5726
Ntp6151
Rp6152
(dp6153
g5730
S'-((complexi*yt)/sqrt__2)'
p6154
sg5785
g6015
sg20
g944
sg5788
Nsg5789
(g5777
tp6155
sbag0
(g5780
g5726
Ntp6156
Rp6157
(dp6158
g5730
S'-((complexi*ytau)/sqrt__2)'
p6159
sg5785
g6015
sg20
g924
sg5788
Nsg5789
(g5777
tp6160
sbas(g6017
tp6161
(lp6162
g0
(g5780
g5726
Ntp6163
Rp6164
(dp6165
g5730
S'complexi*G/sqrt__2'
p6166
sg5785
g6015
sg20
g96
sg5788
Nsg5789
g6161
sbag0
(g5780
g5726
Ntp6167
Rp6168
(dp6169
g5730
S'complexi*G'
p6170
sg5785
g6015
sg20
g623
sg5788
Nsg5789
(g6017
tp6171
sbag0
(g5780
g5726
Ntp6172
Rp6173
(dp6174
g5730
S'complexi*G__exp__2'
p6175
sg5785
g6015
sg20
g141
sg5788
Nsg5789
(g6017
tp6176
sbag0
(g5780
g5726
Ntp6177
Rp6178
(dp6179
g5730
S'-G/sqrt__2'
p6180
sg5785
g6015
sg20
g2141
sg5788
Nsg5789
(g6017
tp6181
sbag0
(g5780
g5726
Ntp6182
Rp6183
(dp6184
g5730
S'complexi*G/sqrt__2'
p6185
sg5785
g6015
sg20
g3761
sg5788
Nsg5789
(g6017
tp6186
sbag0
(g5780
g5726
Ntp6187
Rp6188
(dp6189
g5730
S'-complexi*G/(sqrt__2*3)'
p6190
sg5785
g6015
sg20
g5486
sg5788
Nsg5789
(g6017
tp6191
sbasstp6192
Rp6193
.